c__builtin__
set
p1
((lp2
L1208925819614629174706176L
aI1
aI2
aI3
aI4
aI5
aI8388608
aL18446744073709551616L
aI8
aI9
aI10
aI4504149383184384
aI12
aL4951760157141521099596496898L
aL302231454903657293676800L
aI16
aI17
aI18
aL36893488147419103233L
aI20
aI281474977759232
aL604462909807314587353600L
aI18577348462903296
aI24
aL73786976294838206464L
aI12884901888
aL154742652484625124038803456L
aI562949970198528
aI268435456
aI32
aI33
aI34
aI4194305
aI6
aL1208925819614629174707200L
aI40
aL316912650057057350374176325632L
aL309485009821345068724781568L
aI48
aL316912650057057350374175801352L
aI1074003968
aI8933531975680
aL147573952589676412929L
aL75557864288864276840448L
aL19807040628566084673263894528L
aL79228162514336395187581878272L
aL9444732965740364169216L
aL147573952589676412930L
aL75557868229513950789632L
aI281474976710720
aI65
aL38685626227668133590597634L
aI68
aI133120
aL2361183241434889715712L
aI72
aL147573952589676412932L
aL39614081257132168796771975200L
aI5497558138880
aI2097160
aL618970019642690137449562176L
aI80
aL606824093048749409959936L
aL590584040734857363456L
aL4722366482869645230080L
aI68719476738
aI576460752307617792
aL147573952589680607232L
aL1267650600228229401496703205504L
aL18446744073709551618L
aL4951760157141521099596496912L
aL18889465931478580887552L
aL39614081257132168865491451904L
aL295147905179352825857L
aL78580178274950896355901440L
aI9007199255789568
aL316912650057057350391355670528L
aL295147905179352825858L
aI562949953683456
aL309485009821345077314715648L
aI72057594037927940
aL1267650609672962367235993632768L
aI1048580
aL309485009821345068724781088L
aL18482772870728515584L
aI26388279066624
aL295147905179352825860L
aL38685626227668133859033088L
aL633825300114114700748351604736L
aL1237940039285380274899124232L
aL77371252455336267181195268L
aI72058143793741824
aI8320
aI129
aI130
aL158456325028528675191382867968L
aI132
aI4503599627374592
aI2305843009214218240
aI136
aL158456329750895158056733114368L
aI67108896
aL302268348391804712779776L
aI4398046515200
aI144
aL295147905179352825864L
aI2251799880794112
aL4951779046607452578177351680L
aL1208935042986666029481984L
aL309485009821908018678202368L
aL619045577506416051772981248L
aI550292684800
aI1099511627776
aI536887296
aL623805722921148654148386816L
aI4325376
aI160
aI268566528
aI8589935104
aI4097
aL147609981386695376896L
aL37779220093333313421312L
aL158456325029105135939391324160L
aL295147905196532695040L
aL154742504910672536509874176L
aL77380697188302006471622656L
aI2251799813816320
aL18446761665895596032L
aI558345748480
aL75557863743506509463552L
aL309636125548796897371619328L
aL2475880078570778141984292864L
aI9007199254740993
aL79789104094565525530607616L
aL2417852792150762956259328L
aI2305843009213696000
aL73786976294838206466L
aL37778931862957698580480L
aL18446744073709551620L
aL38685626227668133590598656L
aI2147483680
aL36893488147419107328L
aL5440166188265831286177792L
aL9903520314283042199193059328L
aL590295810358705651713L
aI4611686019501129728
aI263168
aL9223372036854776064L
aI2305843013508661248
aL151116303912580950261760L
aL590295810358705651714L
aI17180000256
aL39614100146598100275352829952L
aL77409031387199224342904832L
aL1237940039285450643643301888L
aI274877915136
aL19342813113834066795560960L
aL9671406556917050577518592L
aI36
aL19418370977559981118717952L
aI2199023255680
aI72057868915834880
aL295147905454230732800L
aL590295810393065390080L
aL4722366483144523120640L
aI74766790688768
aL9223372036921884672L
aI8796101410816
aL4835998426363696051650560L
aI4399120252928
aL9444732965739307204608L
aL1180591620717411336192L
aL590295810358705651720L
aL19342813113834101155037184L
aL147573952589676412928L
aL37779003920551199637504L
aL37181718523570814976L
aL618988909108621616030416896L
aL73786976294838210560L
aI2305843009222082560
aI16640
aI257
aI258
aL309485009821345068993216512L
aI260
aI1099511635968
aI2305843009750564864
aI264
aI4611686018429485056
aL77371252527393861219123200L
aL9671406556917170836602880L
aL9444732965743585394688L
aL75557863726051762372608L
aI272
aI68719493120
aL18446744073709551624L
aL618970019642690137449562368L
aL4951760161753207118023884800L
aL9223372036854775824L
aL950737950171172051122527404032L
aL77372433046956984592498688L
aL18446744078004518912L
aL1392682544196052809261514752L
aI144115188075855873
aL37778931862957195264000L
aI262144
aI288
aL590295810358705651728L
aL4835703278458654137778176L
aI8193
aI71468255805440
aI1125900443713536
aL19807040628566084398386249728L
aL19807050073299050137676414976L
aL1185203306735838691328L
aI140737521909760
aI68719476744
aI8796093284352
aL19845726254793752531976585216L
aL618970019642690137457950720L
aL154742504910672534362652672L
aI148618787703226368
aL154742504982730128400318464L
aL1180591620717411303680L
aL158456362807460538144249610240L
aI8194
aL38685626227668133590597760L
aL19599665578316398592L
aI576478344489467904
aI67108992
aI274877906976
aL37778931862965751644160L
aI549755813890
aL2475880080876603559011942400L
aL1208925819614629174706184L
aI1052672
aL39614081257132168796771991552L
aI4406636445696
aL604465215650323801047040L
aI262208
aI4295032832
aI1152921504741064704
aI268435458
aI1099511644160
aL39614081257168197593790939136L
aI4196352
aL608742554432415203328L
aL151115727451837236772864L
aL906694364710971881029632L
aL590295845543077740544L
aL4951760157141521374474403840L
aL19342813113834075385233408L
aI309237645312
aL604462909807318882320384L
aI4415226380288
aL73786976294838206472L
aL73787257769814917120L
aI2147483656
aI68719476768
aL147573952589676417024L
aL9444732965739290460160L
aI35184372088832
aI1152921504606846978
aL38686216523478492296249344L
aL18889465931512940593152L
aL618970021948533146663256064L
aI8196
aL147573952589678510080L
aL4722366482869645213824L
aL77371252455336267181195328L
aL4951760157141521099596498944L
aI4398046576640
aI12288
aL1180591620717411303425L
aL39614081257132169346527789056L
aL38685626371783321666453504L
aL1267650600228229401496770314240L
aL1267650600228229964446656626688L
aI34361835520
aI66
aL9903520314283042207782928384L
aL9908356017561500715891818496L
aL154742504910672534370779136L
aL9903529759016007938483421184L
aI141836999983104
aL73786976294838206528L
aL38685626227703317962686464L
aL154742504910672534362390528L
aL4722438540463683141632L
aI537001984
aI9007267974217728
aL19807040628566084398385987588L
aL1180591620717444857856L
aL147573987774048501760L
aL1208925819615178930520064L
aL19807040702353060693224194048L
aL604462909807315661094912L
aI70368744177668
aL1180591620717411303432L
aL79228162514264337593543950337L
aL306953821386526938890240L
aI262145
aL2475880152357736844636454912L
aL18889465931479654596608L
aI140737488486400
aI4398046511106
aL19947276023641381382651904L
aL1267650675786093127411026624512L
aL18446744073776660480L
aI67117056
aI36028797555834880
aL1237940039285380274966233088L
aL18889537989072618782720L
aL9671406701032221473505280L
aI8589934848
aL295147905179352842240L
aI1125900041060352
aI144115188612726784
aL4722366482869645213728L
aI146028888064
aI268443648
aL2475880078570760549798313984L
aL77371253031797019484618752L
aI1152921506754330624
aL75557899754711342383104L
aL9903520388070018494031200256L
aL158456325028564703984106864640L
aI68719476864
aL4951760194035009247015600128L
aL295147905179352825920L
aL633825300114114718340537647104L
aI2251799813685250
aI137438953488
aI9288674231451648
aL4722366482869645344768L
aI1125899906859008
aL623352375738793168207872L
aL96714065569170333976494080L
aL618970019643816037356404736L
aL73786978493861462016L
aL75557863725914323419136L
aL4986819005910345345662976L
aL39199331156632797184L
aL1267805342733140074031065595904L
aL151115727451828646838280L
aL9671406556917033398697984L
aL79228162514840798345847373824L
aI1099511627784
aL19807040628566084398386003968L
aI1125899906846720
aL7083549724304467820544L
aL158456325028528745555832078336L
aI33280
aI513
aL9444732965739290427394L
aL73786976294838206976L
aL1208925819614766613659648L
aI16384
aL38685626227668133657706496L
aI520
aL590295812557728907264L
aI18014402804449280
aI70373039144960
aI33024
aI528
aL309485009821345068724781184L
aI288230376152760320
aI17592187092992
aL9903520314283042199192993920L
aI288230376151711760
aL316912650057057350378470768640L
aL9671406556917033397649416L
aI524288
aI1040
aL36893488147419103248L
aI16385
aL36893558516163280896L
aI34359869440
aI68786585600
aL1217485108864830406656L
aI33554944
aI35651584
aL316912650057057350374175801472L
aL1208925820740529081548800L
aI8796629893120
aI2147516416
aI134217729
aL1180591625115457814528L
aI2305843009213693956
aL2361183241435896348672L
aL2417851639233656395923456L
aI9007203549708288
aI36028797019226112
aI576
aL590295810358705651776L
aL302231454903657293676546L
aI1153484454560268288
aL73786976294839255040L
aL9903520314285293999006679040L
aL1267650600228229401497240076288L
aI262146
aI2203318222848
aL309485009821345068724781064L
aL9903520314287545798820364288L
aL2475880078642818143836176384L
aL302249901647731003228160L
aI137438953984
aL1237940039285380274899140608L
aL9903520314283042199192993794L
aL590295810358722428928L
aI1152921504611041280
aL73786976294838206480L
aL295147905179352825872L
aI140737496743936
aL633830135817393159265050427392L
aL1237940039285380275435995136L
aI4112
aI4611686018427387912
aL1180663678311449231360L
aI562949954469888
aI584115552256
aL309487371004586503547387904L
aL154742541804160681781493760L
aI1099645845504
aL166020696663385964544L
aI562949953421316
aL1237940039285380274899156992L
aL12379400392853802748991242240L
aL147573952589743521792L
aI33554464
aL158611067533439347721450291200L
aI34359738372
aL9903520314283042203487961088L
aI9007199254740994
aL1237941219877000992310427648L
aL9905938165922271457542406144L
aI16388
aL39614081257132168796771975296L
aL9444732965739290427520L
aI2199023255553
aL38685700014644428428804096L
aL302231454903657293680640L
aL755578637259143234191360L
aL154742504910673633874018304L
aI4400193994752
aI34359740416
aL19807040633177770416813375488L
aL9903520314283042199192993793L
aI8606711808
aL4951760157141521099598594048L
aI2199090364416
aL9671406574931431907131392L
aI1100048498688
aI16777216
aI1073758208
aL37852718839251999916032L
aL18889465935876627365888L
aL38685626227668133594791936L
aL4835703278459616210452480L
aI549755817984
aL4722366482869779431424L
aL9671406556918132909277184L
aL9444733106476778782720L
aL2361183241984578420736L
aI8388612
aI18014673387388928
aL633980042619025373282713993216L
aI281474978807808
aI524289
aL618970019642690146039496704L
aL628641426199607170847211520L
aL36893488148492845056L
aL2417851639246850535456768L
aL158456325028528675187087900674L
aL1267650600228229401496703205377L
aL1180591620734591172608L
aL1770887431076116955136L
aI8724152320
aL2417851639229258382966784L
aI140737488371712
aL37778949877355671191552L
aI17179869440
aL9671406556917033399746560L
aI140737488359424
aL9223372036854776832L
aI72057594037928448
aI1103806595072
aL18889465931478580871168L
aL79228162514264337593543950848L
aI536879104
aL147573952589676412944L
aL309485009821345069261651968L
aL18889467057378487697408L
aI2305878193585782784
aL75557863725914331807744L
aL75557863725914860290048L
aI72057594105036800
aL77371252455336267181195296L
aI8208
aL39614081257132168797845716992L
aL633825300114114841485839958016L
aL81704042592835098143342198784L
aL154742578697648829200596992L
aI134234112
aL14507109835375550096474112L
aI268439552
aL73786976363557683200L
aL302231454903657293676552L
aL1267651204691139208811290558464L
aI274877939712
aL77371252456462167088037888L
aL2475880078570760549798250496L
aI768
aI128
aL158456325028528675187087900680L
aL75557863734710416441344L
aI24576
aL2361183241434822606849L
aL633825300114114700748351635456L
aL316912650057057385558547890176L
aI70368744177728
aI70370891661312
aL633825300114114700748351602688L
aI144132780261900288
aL154742504928686932871872512L
aL316912650057057420742919979008L
aL316912650057345580750327513088L
aL75557863725918618386432L
aL154742504910707718734479360L
aL590295810358705684480L
aI576460752303423504
aL9903520314283042748948807680L
aL73786976294838206592L
aI144119586122366976
aL1238091155012832103545962496L
aL2417925426205553187618816L
aI786432
aI134348800
aL7253554917687775048237056L
aI274877906960
aI2305843009213710336
aI576460752303456256
aL592601653367919345664L
aI1128098930098176
aL9445021196115442139136L
aL77371252455336284361064448L
aL4951760157141521099596627968L
aI2199027449856
aL9444732965747880361984L
aL147573952589676413056L
aL295147909577399336960L
aI549756076032
aI262656
aI9015995347763200
aI9007199254740996
aL75557863725914323419137L
aL9223372036888330240L
aL4951760157141521099604885504L
aL19807040628566084398922858496L
aI281479271677952
aL302231454903657294725120L
aI1099511627808
aL9903520314283042199192993800L
aL153476910693263469445120L
aL303412046524374704979968L
aI1152939096792891392
aL302231454908055340187648L
aI144678138029277184
aL1180591622916434558976L
aL9671406556917033397649410L
aL2475880078570762748821504000L
aI70368744177792
aL79228162514264337662263427072L
aL4951760158294442604203343872L
aL4873482210321473860534272L
aL6044629098073145873530880L
aL36893488422297010176L
aI288230377225453568
aI2305843284091600896
aL590304817557960392704L
aL164413911467589567760039936L
aL295147905179352825984L
aL19807040628566084398385987584L
aL77371252464343466435936256L
aI131104
aL2361183250230915629056L
aI288230376153808896
aL77371252455336267181211648L
aL1267650600228229401496707399680L
aI8796126576640
aL158456325028528675736843714560L
aL1267650619117695332975284060160L
aL604462909807314589450240L
aL316912650059363193383389495296L
aI262148
aI52776558133248
aI18014398509481986
aL673439381371246869545123577856L
aL77371252455336267718066176L
aI262176
aI576469548396445696
aI2199291691008
aI1207959552
aL9903520314283042199192993824L
aL19342813113834066795299072L
aL19342813114115541772009472L
aL39614081257132168796771975169L
aI4429185024
aL633825300114114700885790556160L
aL464227514732017603087171584L
aI17196646400
aL1267727971480684737763884400640L
aL9444732965739290427456L
aI2322168557862912
aI2199023256064
aI1048592
aL77371252455899217134616576L
aL77371252455336267181326336L
aI1073872896
aL2417851641481058163097600L
aL4835703278458516698828800L
aI36028797018964032
aL154742504910672534362406912L
aL633825300114114701023229509632L
aL1208925819614629175230464L
aL316912650057057354772222312448L
aI288230376151711752
aL2553251331026096816979443712L
aL151115727451829183709184L
aL604462909807323177287680L
aL38685626227676929683619840L
aL1237940629581190633604775936L
aL19380592045697023957008384L
aL618970019642690274888515584L
aL316912650057057359170268823552L
aL73786976294838206465L
aL2434970217729660813312L
aI4398048608256
aI17179869186
aI140737488355584
aL590295810358705651840L
aI38654705664
aL18446744075857035264L
aI2305845208236949504
aI17314086912
aL4951760157141521099596496928L
aL4956595860419979616295321600L
aI34359738384
aI8796093023232
aI4098
aL321864410214198871473772298240L
aL9671406556917033397657600L
aL1208925819614629711577088L
aI87960930222080
aL39614081257132168796839084032L
aL316915067908696579632525213696L
aI9147936743096320
aL1267650600228229401496703205888L
aL309485009821345073019748352L
aL37781237705966375403520L
aI2251799822073856
aL773712524553362671811952640L
aI137472507904
aL10376293541461622784L
aL18446744073709551648L
aL302231454903657293676560L
aI1116691496960
aL37778931862957161775104L
aL633827717965753930006701015040L
aI536875008
aI576460752303423744
aL36893505739605147648L
aL79228162516570180602757644288L
aL9671406556917033406038016L
aI8589967360
aI562949953422336
aL18889465931478580854785L
aL18889465931478580854786L
aL36893488147419103264L
aL18889465931478580854788L
aL9903520314859502951496417280L
aL604462909807314587353088L
aL18889465931478580854792L
aL1208925819614633469673472L
aL316912650057057350374175932416L
aL4951760157141521099596496896L
aL18889465931478580854800L
aI18014398510530560
aL13835058055282163712L
aI35184373137408
aI66048
aI17626545782784
aL609185276290184232566784L
aI554050781184
aL237684487542793012780631851008L
aL19342813113834066795298816L
aL590295810358705652736L
aI70368752566272
aI8589934608
aL604462909807314587353089L
aL302231526961251331604480L
aL18889465931478582951936L
aI8192
aL4835703278458516699873280L
aL1267650600229382323001310052352L
aL316912801172784802202822639616L
aL147573952591823896576L
aL158456325037752047223942676480L
aI2147745792
aI18014398509481988
aI4755801206503243776
aL77371254761179276394889216L
aI137438953476
aL316912687835989213331337510912L
aL75557863728113346674688L
aI137441050624
aL73786976294838206496L
aL1180591620717411304448L
aI70368744177696
aI32770
aL633825300114150729545370566656L
aI4128
aL158456325028528675187087900704L
aI137707388928
aL9223372036854775936L
aL1180591620786130780160L
aL1208925819614697894182912L
aI67108928
aL2361183243633845862400L
aI4611967493404098560
aL9903520314283182936681349120L
aI1073741826
aL19807040628575091597640728576L
aL1267650602589412642931525812224L
aI18014398509482016
aL19342817725520085222686720L
aI9663676416
aL79228162514264337593577504768L
aL4835703278739991675535360L
aL1247611445842297308296773632L
aL38685626236675332845338624L
aI9007199271518208
aI1125899907891200
aI1133871366144
aL2475880078570760549815025664L
aI274911461376
aI1125899906842628
aI2882303761517117440
aL1237940039285380274899386368L
aI524292
aL633825300123338072785206378496L
aL1267650600228229401496703207424L
aI9570149208162304
aI32772
aL18889465931478580854912L
aL1180591620717411303552L
aL1267650600228229401496971640832L
aL1180591620717948174336L
aI1125899906842625
aL1237940039321409071918088192L
aI8388609
aI4466765987840
aL4835740171946664117927936L
aI2097216
aL316912650057057350374175801345L
aL604758057712493940178944L
aL77919046967349146025984L
aL1267650600237452773533557981184L
aL39614081257132168797308846080L
aI33554432
aI140738562097152
aL1237940113072356569737330688L
aL38685626227668167950336000L
aI76561193665298432
aI528384
aL158456325028528675187087900736L
aI1074790400
aL1237940039285397867085168640L
aL154742504910672534362521600L
aL317067392561968022908538191872L
aI35734127902720
aI288230410511450112
aI9007199254741000
aL633825300114114700748351606784L
aL316912650057057350374242910208L
aL158456325033140361205515288576L
aI17592188141568
aL4835703278458791576731648L
aL9671407133377785701072896L
aL19342813113834066795298817L
aI4294969344
aL147573952589676412960L
aL18446744090889420800L
aL1180591620721706270720L
aL79228162514264337593543950340L
aI585467951558164480
aL39614081257132168796771977216L
aI36028797018963968
aL2417851639229258349445120L
aI562949953421568
aI8224
aL633825300114114700748351602944L
aI2336462209024
aL77371261678708304035971072L
aI17592186045440
aI67108872
aL19807191744293536227032825856L
aI4398046519296
aI1073750016
aL2475889523303726289088675840L
aI422212465065984
aL618970019642690141744529408L
aL39614081257132168801066942464L
aL9444732965741437911040L
aL9444733528689243848704L
aI256
aL75557863761098695507968L
aL5312662293228350865408L
aL653632340742680785146737590272L
aL154742504910672671801344000L
aL1254378597012249509888L
aL79229371440083952222718656512L
aL19807040628602113195404951552L
aL18446744142429028352L
aI281475043819520
aI567347999932416
aI1266637395197952
aL4951911272868972928243335168L
aL1237940039285943224852545536L
aI274877907200
aI576460752303439872
aL604462909807314587353096L
aL633825300114119204347978973184L
aL19807040628566084948141801472L
aL36893488147420151808L
aL75557863725914323419140L
aL590295810359779393536L
aL154742504910672534366584832L
aI4718592
aL18889465931478580855040L
aI144115188210073600
aI66560
aL9223372036854808576L
aI40960
aL158456325030834518196301594624L
aL2417851639229258416521216L
aL1267669943041343235563498504192L
aI1099512676352
aI8590983168
aI536870912
aL9444732965739290428416L
aL316912651237648971091587104768L
aL73786977394349834240L
aI1152921504606846992
aL302231454903674473545728L
aL1180591621267167117312L
aL10625324586456701730816L
aL75557863725931503288320L
aI274878955520
aI1310720
aL316912650057057350374175801360L
aI140737488355332
aL79537647524085682662268731392L
aI70368744185856
aI2251800350556160
aI8589942784
aI576461027181330432
aL604462909948052075708416L
aL154742504910676932408901632L
aL9799832789158199296L
aI1099511889920
aL147718067777752268800L
aL77371252455336267182243840L
aL302231454903657293692928L
aL316912650057057351473687429120L
aL316912650057057350374179995648L
aI35192962023424
aL1267650600523377306676056031232L
aL147646010183714340864L
aL316912650057201465562251657216L
aL159694265067814055461987024896L
aL19342813113834066795298818L
aI2260595906707456
aL58028439341502200385896448L
aL4951760157141521649352310784L
aL618970019642691236961189888L
aI72061992084439040
aL151115727451966085791744L
aL80466102553549717868443074560L
aI5066549580791808
aI2199023271936
aI4295491584
aL618974742009173007094775808L
aI288265560523800576
aL154742504910672534362390530L
aI18253611008
aL9903520316588885208406687744L
aL158456325028528675187092094976L
aL158456325028528956662064611328L
aI18014398511579136
aI70369281048576
aL18889465931478581903360L
aL4722366482869678768128L
aL38685773801620723267010560L
aL39614156814995894711095394304L
aL302231454903657293807616L
aI8796094070784
aI8796361457664
aL9903520314283042199193010176L
aL621387871281919395798974464L
aL151115727451828647886848L
aL618970019642690137449627648L
aI70368744177664
aL73786985090931228672L
aI36028797018963970
aL38695070960633872881025024L
aL73786976294838214656L
aL295147905180426567680L
aL79228464745719241250837626880L
aI1152930300699869184
aI34816
aL2475880078575264149425618944L
aL590295810427425128448L
aL2475880078570760558388183040L
aI8796093022209
aL643728820428397742947544596480L
aI16777217
aI68721573888
aI4611686018427387905
aI144115188075872256
aI320
aI4299161600
aI34376515584
aL1208925819614629174837248L
aL1267650600228229401496703221760L
aI41943040
aL309485009821345068733169664L
aI17179869248
aI2147483652
aI144115196665790464
aL295147905179352825888L
aL75567087097951178194944L
aI33554496
aI17179869696
aL316912650057057631849152512000L
aL9671406556917034471391232L
aI18014398509481992
aI4611687117939015680
aL1267650751343956853325350043648L
aL154743095206482893068042240L
aI576460752303423488
aI283673999966208
aL37797378607030871261184L
aL151115727451828646838273L
aL633825300114114700748351602690L
aL158456476144256127015734738944L
aL1276625665513048408489721856L
aI34493956096
aL302231454903657293676576L
aL2568967366681086996250624L
aL39614081257132168796774072320L
aI2251799947902976
aL18890042392230884278272L
aL4835703278458516698824712L
aL9671406556917033397650432L
aI268435712
aL618970019642690137449562113L
aL4835703278458517772566528L
aL316912650352205255553528627200L
aI2305843011361177600
aI1099511758848
aL154742504910672534362398720L
aI137438954496
aL9241386435364257792L
aI67108868
aL604462909807314587353104L
aI140737488355336
aI2251799813701632
aI8796160131072
aL9903520314284168099099836416L
aL46116860184273879040L
aL19807040628566084398385991680L
aI144115188075859968
aI549755814144
aI4503599660924928
aI4611686018427388032
aL36893488147419103240L
aL79228162514264337593543950464L
aL99035203142830421991929937920L
aL18889465931478580855296L
aI524544
aI4503599627436032
aL604463198037690739064832L
aI49152
aL4722366482869645213697L
aL4951760157141521108186431488L
aI1152921504606848000
aL618970019930920513601273856L
aL36893488147419103488L
aI65792
aL4722366482886825082880L
aI138412032
aI288230376155906048
aI36028797020012544
aL148150413341979836416L
aL4835712501830553553600512L
aL4722366482869645213700L
aI4398047035392
aL4722366482869645475840L
aI1572864
aI36099165763141632
aL73786976569716113408L
aI576531121047601152
aI68719607808
aI270336
aL1267650600228229436681075294208L
aI17179877376
aL1237940039285380274899124736L
aL4722366482869645213704L
aL4835703278458516707213312L
aL618970019642690137466339328L
aL154742504910672542952325120L
aI36028797018963972
aI2305843009213694976
aL19807040628584098796895469568L
aL77371252459839866808565760L
aL1267650600228229401496703205384L
aI8421376
aL1199038364791120855040L
aL38685626227668137885564928L
aI17039360
aL158495010654756343320678498304L
aL77371252455336267181195520L
aL9444733000923662516224L
aL77446810319062181504614400L
aL2361183241434822672384L
aL43521329506126650289422336L
aL19023204826012975104L
aL2361183241434824704000L
aL9223372036854841344L
aL151115727451828646838274L
aL9223372071214514176L
aI34359738432
aL386856262276681335905976320L
aL75557863725914323427328L
aL9942205940510710332783591424L
aI2305843009217888256
aI524352
aI36028797018964000
aI9007199388958720
aL4722366482869645213712L
aL9447038808748504121344L
aL19342813257949254871154688L
aL39614081257132168796772106240L
aL9671406556917033398173696L
aL147573956987722924032L
aL1237940039285380274899124352L
aL9903520314283044398216249344L
aI2097664
aL19807040628710199586461843456L
aL590295810633583558656L
aL316912650057057350408535539712L
aI1073742336
aI275146342400
aL304371277216207601664L
aL1237940039285380274899124256L
aL618970019642830874937917440L
aL19342813113834066795298820L
aI288230376151711746
aL158456325028600732781125828608L
aL36893488147427491840L
aI35459249995776
aL619272251097593794743238656L
aL36893769622395813888L
aL1208925819755366663061504L
aL18889465931478849290240L
aL154818062774398448685809664L
aI17592186044417
aL147573952589676478464L
aL159578208189131051061215232L
aL73786976294854983680L
aI536872960
aL309485009825848668352151552L
aL1856910058928070412348686336L
aL75557863725914324467712L
aL590295810358705717248L
aL295147905179353088000L
aL2475880078858990925949960192L
aL4951760157141521099613274112L
aI2199560126464
aI50331648
aI2147500032
aL147573952589676412936L
aL618970019642690137449564160L
aI140746078289920
aL19342813113834066795302912L
aI8650752
aL2475880079147221302101671936L
aL4835703278458516698824768L
aL1267650600228229410292796227584L
aL1180591620717411565568L
aI35184374185984
aI137439019008
aL38685626227668133590597664L
aL158456325028528675187624771584L
aI864691128455135232
aI10995116277760
aL633825300114114700782711341056L
aI36033195065475072
aL1208925820177579128127488L
aL73786976294972424192L
aI4398046642176
aI1152991873351024640
aL590295810358705651968L
aL79228162514264338143299764224L
aL79228164875447579028366557184L
aL36893488147687538688L
aI131328
aL442721857769029238784L
aL38685644674412207300149248L
aL39614081257276283984847831040L
aL154742504910690126548434944L
aI35184372089856
aL1237940039285380274901221376L
aI524296
aL295147905179386380288L
aL2475880078570769345891270656L
aL1180591620717411303426L
aL73787011479210295296L
aI69256347648
aI4294967808
aL79228162514264338693055578112L
aL4722942943621948637184L
aL75557864007389300129792L
aL2418146787134437702238208L
aI134219776
aL73786976294840303616L
aL302231454904756805304320L
aL11529215046068469760L
aI17592253153280
aL75557863727013835046912L
aL19807040628566084415565856768L
aL1328165573307087716352L
aL1237942400468621709721731072L
aL1267653018079868630755052617728L
aL39614081257141175996026716160L
aL154742504910672534362394624L
aL79237833920821254626941599744L
aI34359771136
aL110680464442257309696L
aL4835703278467312791846912L
aL78398662313265594368L
aL77373613638577702003802112L
aI32800
aL928455029464035206174343168L
aI288230376151712256
aL2363489084444036300800L
aI9007199254742016
aL19342813113834066795315200L
aI1073741824
aL1267650600228229401500998172672L
aI9007200328482816
aL310693935640959697899487232L
aI2251801961168896
aL18447025548686262272L
aI282024732524544
aI140737488355329
aL158456325028528679585134411776L
aL19807040628566084535824941056L
aL633825300114114700748351602704L
aI549755813892
aL36893488147955974144L
aI532480
aI1152
aL302231454905856316932096L
aI4328521728
aI1143492092887040
aL1180591620717411303424L
aL79228162514264337593544015872L
aL9903520314283059791379038208L
aL160560460417567937265664L
aL151120339137847074226176L
aL39614081257132168796771975176L
aL1267650600228229419088889249792L
aL2417851639229395788365824L
aI2199023255584
aL2361183241434822606848L
aL79228162514264346389636972544L
aI2305860601399738368
aI281474993487872
aL12089258196146291747061760L
aL316912650057061853973803171840L
aI2306124484190404608
aL18446745173221179392L
aL1208926107845005326417920L
aI17592320262144
aL75557863725914323419144L
aL37778931862957163806720L
aL19826383441679918465181286400L
aL151115727451832941805568L
aI5629499534213120
aL2436741105160736930267136L
aI36028798092705792
aL618979464375655876739989504L
aL9444732965739424645120L
aI18049582881570816
aL39614081330919145091610181632L
aL1237940039573610651050835968L
aI35433480192
aL9223372036854775810L
aL2417870085973332058963968L
aL48357032784585166988247040L
aL77371252455336267181197312L
aI288230376151744512
aI36028797021061120
aL316912650057057350374175817728L
aL9671406628974627435577344L
aL9444732965739290492928L
aI1099545182208
aI550024249344
aL18464758472219033600L
aL19342813113834066797395968L
aL1237940039285380279194091520L
aI8388610
aI9042383626829824
aL18889468183278394540032L
aL633825300116420543757565296640L
aL38685626245682532100079616L
aL151115727451828646838276L
aL1267650600228229401496703205408L
aL4722366482869645213760L
aI139586437120
aL618970019644941937263247360L
aI64
aL37778931862957161709824L
aI33554433
aL4796153459164483420160L
aL24178516392292583494123520L
aL37778931862957430145024L
aL18894077617497008242688L
aI140737488420864
aL9903520314283042199195090944L
aI9007199258935296
aI9007199254741008
aI2147614720
aL633825300114114700748351602752L
aL633825300114114705146398113792L
aL18446744073709551680L
aL9671406556917033397649472L
aL151115727451828646842368L
aL19816712035123001431783636992L
aL2475880078570760549831802880L
aI36028797018963976
aL37926505815546838122496L
aL9671406556917041987584000L
aL1237940039285380343618600960L
aL75557863725914356973568L
aL309485009821345068724781060L
aL19811876331844542915084812288L
aI1152921504606846976
aI19791209299968
aI144115188075855888
aI8864812498944
aL590295810358707748864L
aI4611686018427396096
aL158456325028528710371459989504L
aI73014444032
aL618970019642690137449562128L
aL36893488147419103296L
aI18295873486192640
aL604462909807314587353120L
aL2361201255833332088832L
aL4722366491665738235904L
aL151115727452378402652160L
aL9903595872146768113516412928L
aL4951769601874486838886924288L
aL18889465931753458761728L
aL1208928125457638388400128L
aI4647714815446351872
aL40852021296417549071671099392L
aL19807040628566085497897615360L
aI8796109799424
aL19342813113834068942782464L
aL633825300114114700748353699840L
aL1218370552580368465133568L
aL302231454903657295773696L
aL4722366483969156841472L
aL1237940039285380274899255296L
aL9671406556921431444160512L
aI144116287587483648
aL39614081257132168813951844352L
aI2305843043573432320
aI144396663052566528
aL604462918814513842094080L
aL39614081257150183195281457152L
aI281474980904960
aL2361327356622898462720L
aL3626777458843887524118528L
aL39614383488587072454065651712L
aI1099511628032
aL2720083094132915643088896L
aI18014400656965632
aL302231454921249479720960L
aI4504699138998272
aI4611686022722355200
aL19807040628566119582758076416L
aI2048
aI2049
aL37778931862957161709570L
aI268468224
aL37778931862957161709572L
aI65536
aL9445309426491593850880L
aL75557863725914323419200L
aI1152921505680588800
aL147573952606856282112L
aI134217736
aI1342177280
aL37778931862957161709584L
aI17592186306560
aI18014398513676288
aI70368745226240
aL633825451229842152576998440960L
aL1208925819619027221217280L
aL9903520609430947378545819648L
aI2097152
aL590295810358705653760L
aL1180627649514430267392L
aI144115188075857920
aL19807042989749325833208594432L
aL1208925819614629174706177L
aL2417851639229258349413376L
aL19342813113842862888321024L
aI34359746560
aL18446744073709584384L
aL1180591620717411307520L
aL18889465931478597632000L
aI288230444871188480
aL1180591902192388014080L
aL9903520314283042199193124864L
aL44565841414273689896368472064L
aL316912650204631302963852214272L
aI524800
aI4294967304
aL151115871567016722694144L
aL37778931862957161709632L
aI9007199523176448
aL1208925819614629174706178L
aL1267650600228229401496704253952L
aI36029346774777856
aI42949672960
aL309485009821353864817803264L
aL79228162514264337593543950368L
aL151115727460624739860480L
aL4951760157141521099596529664L
aI576460786663161856
aI2199024304128
aL19807040628566084398419542016L
aI180143985094819840
aL9224497936761618432L
aI2147483650
aI1073741828
aL73786976844594020352L
aL604462909807314587385856L
aI576460752370532352
aL18889465931478715072512L
aL18451247673336922112L
aL18889465931478580856832L
aI17180917760
aL79228162518876023611971338240L
aI1125899923619840
aI2251799814733824
aL9671406556917033934520320L
aL590295951096194007040L
aL75557863725914457636864L
aL2480715781849219066497073152L
aI16777218
aI316659348799488
aL618970019642694535496073216L
aI144115192370823168
aL604462909807314587418624L
aI65540
aL2361183241434822608896L
aI134217856
aL590295810360853135360L
aI137506062336
aI524320
aL1208925819614629174710272L
aI4611686018427912192
aI8256
aI2269391999729664
aL4835703278599254187180032L
aI72198331526283264
aL77371252455336267181195272L
aL170005193383307227693056L
aL4835703278458516698824705L
aI4503599694479360
aL4722366482870718955520L
aL18447869973616394240L
aL19807040637789456435240763392L
aL633825300114115826648258445312L
aL1237940039285380274899124226L
aL19342813113834066929516544L
aI67108864
aL77371252455617742157905920L
aI18014398509482000
aI137438953600
aL1246704751477586336415744L
aL75557863725914323423232L
aL18446746272732807168L
aL151115727451828646838288L
aL4835703278458516700921856L
aL154747227277155404007604224L
aI9007199255265280
aL19342813113904435539476480L
aL37778931862957161709568L
aL4951760157141521099596496960L
aL309485009821345068724797440L
aI269484032
aL9444732965739357536256L
aL4951760452289426278949322752L
aI2097153
aL147574234064653123584L
aI576460752303423490
aI4611686018427389952
aI17660905521152
aL636301180192685461298149851136L
aL116056878683004400771792896L
aL2475880078570760549798248456L
aI72057594037927936
aL9232379236109516800L
aL77371252455336267181196288L
aL1237940041591223284112818176L
aL317531620076700040511625363456L
aL1267650600265122889644122308608L
aL2417851639792208302833664L
aL1267650600228229401496703205632L
aL618970019642690137449570304L
aI35184372121600
aI1048584
aL10035028776097996079104L
aI268435472
aI2147491840
aL316912650647353160732881453056L
aL1208925891672223212634112L
aL9903520314319070996211957760L
aI274894684160
aL38685626227668133590597632L
aI1152921504606847232
aL19807040628566084398386118656L
aL76738455346631734722560L
aL38685626227668133590728704L
aL316912650066280722411030577152L
aL302233760746666507370496L
aL79232998217542796110242775040L
aL316912650057093379171194765312L
aI35184439197696
aL9223372036854906880L
aL77371252455345063274217472L
aL3094850098213450687247810560L
aL633826509039934315377526308864L
aL604462909807314604130304L
aL9223372105574252544L
aL19342813113834066803687424L
aL633825300114114700748351610880L
aI65537
aI65544
aI81064793292668928
aL4722366482878235148288L
aL302526602808836646502400L
aI290482175965396992
aI4611686018435776512
aL4722366482869645215744L
aI384
aI51539607552
aI1152921504606879744
aI73728
aI4611686018964258816
aI140738025226240
aL77522368182788095828033536L
aI2147483904
aL9223372036988993536L
aI1152921504640401408
aI1610612736
aL1180879851093563015168L
aL2417851639229258886283264L
aI137438969856
aL1237940039285521012387479552L
aL1237940039285380274899132416L
aL1180591620717411319808L
aI4398046511232
aI2359296
aI8796093030400
aL37778931871753254731776L
aI1099511627780
aL158456325028528675324526854144L
aI1056768
aL1237940039357437868937052160L
aL1237940039285382473922379776L
aL2417851643732857976782848L
aL9444732965739290951680L
aI162129586585337856
aL1267650600228238408695957946368L
aL618970019651697336704303104L
aI137438953480
aI2199023517696
aL37778931862957161725952L
aL1208925819614629308923904L
aL37779075978145237565440L
aI33587200
aL9904124777192849513780346880L
aI132096
aL4951760157141802574573207552L
aI18014398509482112
aL2417851639229262644379648L
aI288230376420147200
aL633825602345569604405645279232L
aI17592202821632
aI2097154
aL20070057552195992158208L
aL38685627380589638197444608L
aI17179869216
aI137975824384
aI9007199254741120
aI2305843558969507840
aL2361183241503542083584L
aL618971200234310854860865536L
aL2495222891684594616593547264L
aL39614081258285090301378822144L
aI327680
aL9444732965739294621696L
aL37469948899722526720L
aL1208926972536133781553152L
aL1208925819632221360750592L
aI18014398509514752
aL1180591620717411303440L
aL18889483945877090336768L
aL2417851639229258349414400L
aL77371257067022285608583168L
aL151115728014778600259584L
aI137438953504
aL1267650600228229401497776947200L
aI105553116266496
aL77371252455336267248304128L
aI72057594037927938
aI34078720
aI140737488355344
aL4722367608769552056320L
aL1267655435931507860013402030080L
aL154742504910672535436132352L
aL9903520314427157387268849664L
aI16448
aL2422574005712127994626048L
aI2415919104
aI65538
aL18446744348587458560L
aL295219962773390753792L
aL79228162514264337593543966720L
aL604467521493333014740992L
aL604462909807314855788544L
aL633825300261688653338028015616L
aL2362336162939429453824L
aL75558440186666626842624L
aL36893488147421200384L
aI75497472
aI562949957615616
aL82206955733794783880019968L
aL295147905187942760448L
aI281474976718848
aI2251868533161984
aI33816576
aL604462910933214494195712L
aI576460752303489024
aL1267650600302016377791541411840L
aI1048640
aL94447329657392904273920L
aI281474976712704
aL19342813113836265818554368L
aL633825300114114700750499086336L
aI537919488
aL618970019642690138523303936L
aL73787117032326561792L
aL309485009821345068724912128L
aL147573952593971380224L
aL2418441935039617055064064L
aL633825300114691161500655026176L
aI1152921504606851072
aI274877906946
aI37383395344384
aI562949953421328
aL36895739947232788480L
aL618970024254376155876950016L
aL1267650600228229401496703205378L
aL4835703278458551058563072L
aL316912650058210271878782648320L
aL9903822545737945856486670336L
aI134225920
aI68853694464
aL634134785123936045817076383744L
aL633834971520671617781749252096L
aL1267650600228229402046459019264L
aL79228162532711081667253501952L
aL39614081257132168796788752384L
aL29014219670751100192948224L
aI8200
aI549772591104
aI10485760
aI1130297953353728
aI268500992
aI275012124672
aI70437463654400
aL9518519942034128633856L
aI4503599627370498
aL1208925819614629174706192L
aI9007199254741248
aL295147905179889696768L
aL1208925819614646354575360L
aL2417851927459634501124096L
aI17592190238720
aL302231454903658367418368L
aL2475881259162381267209551872L
aL19807040628566365873362698240L
aI2147487744
aI274945015808
aI4294967328
aL20426010648208774535835549696L
aL1237940039861841027202547712L
aL39618916960410627313470799872L
aI36028799166447616
aL2417851657243656858894336L
aL309485019044717105579556864L
aL39614081257132168796771975170L
aL19807040628566084398385988608L
aI2560
aL295147905179352956928L
aL37778931862957161710592L
aL19807645091475891712973340672L
aI81920
aL9445885887243897274368L
aI1152921504606847488
aL310089472731152383312134144L
aL18889501960275599818752L
aL4722366482869712322560L
aL38685635451040170445373440L
aL1237940039285380292078993408L
aI36028797023158272
aI72057594038976512
aL316912650057057350374176849920L
aL18446744073709551632L
aL618970019642725321821650944L
aL38685626227668133590605824L
aL77371252473350665690677248L
aI70403103916032
aI141287244169216
aI2621440
aL151115727469420832882688L
aI17592186046464
aL1208925819649813546795008L
aL4951760157141521099730714624L
aI549756862464
aI1125899907104768
aI36591746972385280
aI8589934596
aL664082786653543858176L
aL309485009822470968631623680L
aL302231454903657293676544L
aI18014467228958720
aL1237940039285380274899128320L
aI4295000064
aL2475884800937243419443462144L
aL73859033888876134400L
aL604462909842498959441920L
aL79228162514282351992053432320L
aL77371252455336267214749696L
aI34360262656
aI2251804108652544
aL1237958928751311753479979008L
aI562950221856768
aL151115731955428274208768L
aL77371252455336267181203456L
aL4835703278458516698857472L
aL4951760157150528298851237888L
aL158456325028528675461965807616L
aL79228162514264900543497371648L
aL158456325028528675221447639040L
aL4835705584301525912518656L
aL2361183241434822623232L
aI524416
aL19342813116085866608984064L
aI1152921538966585344
aL2361183241434839384064L
aI577586652210266112
aL147573952589676412992L
aI18155135997837312
aL147573952589676429312L
aL1208999606590924012912640L
aI589824
aL9223372036855824384L
aI1152921504673955840
aL36893628884907458560L
aI4512395720392704
aL604462909807314587353344L
aL309485009821345068724781058L
aI17188257792
aL79228162514408452781619806208L
aL1813388729421943762059264L
aL2361183241435359477760L
aL1267650604950595884366348419072L
aL4961431563698438132994146304L
aL4835703278458518846308352L
aI72066390130950144
aI2097156
aI33554434
aL19342813113851658981343232L
aI8858370048
aL295436135555504537600L
aL79228162514264407962288128000L
aL38685626227668150770466816L
aI262160
aI70643622084608
aI4398046511105
aL2361183241434822737920L
aL77371252455336267181195392L
aI4611756387171565568
aI281474976743424
aL2475880078570760549798248576L
aL39614081847427979155477626880L
aL79228162514264341991590461440L
aL147573952589676937216L
aL158456325028528675195677835264L
aL348170636049013202315378688L
aL147573952589676544000L
aL1209220967519808527532032L
aI4398113619968
aL39614081257132203981144064000L
aL590295810358706176000L
aI83886080
aI36028797018963984
aL590298062158519336960L
aI562949953429504
aI2101248
aL590872271111009075200L
aL9444734091639197270016L
aI562949953945600
aI562949953423360
aL9671406556917033397649408L
aL4952969082961135728771203072L
aL151115727451828646838336L
aL2475880078570760549798281216L
aL77371252455371451553284096L
aL4835703279021466652246016L
aL158456325028528675187087904768L
aL1208925819614629174706180L
aI35253091565568
aL39614685720041976111359328256L
aL4722366482869645221888L
aL302231459407256921047040L
aI35184372088833
aI1108101562368
aI2251799813685504
aL302231454903657293676545L
aI576460752303424512
aL316912652418240591808998408192L
aI4503601774854144
aI70368744178688
aI4194336
aL18446744073726328832L
aI274878431232
aL19807040628566084398386053120L
aL151116015682204798550016L
aL309485014433031087152168960L
aL9903520314283042199192994048L
aL18446744073709813760L
aI18874368
aL79228162514264337602133884928L
aI8454144
aL633825300114114700748351733760L
aI144115188142964736
aL618970019642690137451659264L
aI69632
aL158456325028528675187088031744L
aL309485009821345068724789248L
aL59421121885698253195157962752L
aI576460752303554560
aL295147905183647793152L
aI578712552117108736
aI576460821022900224
aL38685626227670332613853184L
aL39614081552280073976124801024L
aL309485046714833216143884288L
aL9903520314283050995286016000L
aI68719509504
aL618970019642690137449562624L
aI20266198323167232
aL36893488147486212096L
aI137438953473
aL1237940039286506174805966848L
aL618970019642690137717997568L
aL18446744073843769344L
aI1050624
aI8796093022720
aL37778932425907115130880L
aI140737488355392
aI576460752437641216
aL1180591620717411303428L
aL158456325618824485545793552384L
aL36893488147419103234L
aI1125900980584448
aI274886295552
aL1237940039285380412338077696L
aI70918499991552
aL36893488147419136000L
aL2361183241434822607360L
aL9671406556917037692616704L
aL2361183241572261560320L
aI68719476752
aL9671411168603051825037312L
aL2475880668866570908503900160L
aL151115727451828646838272L
aL295165919577862307840L
aL9223374235878031360L
aL2475880078579767749052989440L
aI278528
aI288230380446679040
aI576460752303423616
aL295147905179352834048L
aL18890618852983187701760L
aL74363437047141629952L
aL39614081257132168796772007936L
aL75705437678503999832064L
aL4835703314487313717788672L
aL1237940057732124348608675840L
aI140737756790784
aL39615290182951783425946681344L
aL79228162514265463493450792960L
aI17180131328
aL1208925837629027684188160L
aI18014398777917440
aI35184388866048
aI96
aL39614081257132309534260330496L
aL39691452509587505063953170432L
aL1237940039285380274899124224L
aI288230376152236032
aI9345848836096
aL9444732966014168334336L
aL620178945462304766624268288L
aI6917529027641081856
aL158456325028816905563239612416L
aI576460752303425536
aL75557863725914325516288L
aI16386
aL633825300114123707947606343680L
aL1180591620717679738880L
aL19342886900810361633505280L
aL1237940039289883874526494720L
aI2305913377957871616
aI2147483664
aL38046409652025950208L
aL302236066589675721064448L
aL38690348594151003235811328L
aI288230376160100352
aI36028797018996736
aI72057594040025088
aL74939897799445053440L
aL4951760157141521099597545472L
aI2199056809984
aL9903520314283042267912470528L
aL4722370986469272584192L
aL73787046663582384128L
aI36028934457917440
aI8389120
aL9223512774343131136L
aI154618822656
aI281509336449024
aL9671406556917033397649424L
aL4835703278458516698824706L
aL147573952589693190144L
aL154742504915176133989761024L
aL19479761741837286506496L
aL3713820117856140824697372672L
aL4951760175588265173306048512L
aL604462909807314587353152L
aL604462909816110680375296L
aI67108865
aL1267651809154049016125877911552L
aL9903520314283042336631947264L
aL2361183382172310962176L
aI9007216434610176
aI36029896530591744
aL79382905019175010127906340864L
aL18446744073709551617L
aL302231454903657427894272L
aI4573968371548160
aI4398046511616
aI4611686293305294848
aI1125899911036928
aL618970019714747731487490048L
aI553648128
aI68719476800
aL302231454903657360785408L
aL295148186654329536512L
aL37778931862957161971712L
aL38685626229919933404282880L
aI8912896
aI72057594037927944
aL77371252455336404620148736L
aL1267650600228229401496736759808L
aL18446744211148505088L
aI1100585369600
aL2475880078570760549865357312L
aI17179873280
aI2305843009213693952
aI1125899906842640
aL1208925819615728686333952L
aI1441151880758558720
aL9223934986808197120L
aL295147905179621261312L
aL4951760157141525497643008000L
aL2475880078570760549798249472L
aL19807040628566084399459729408L
aI285873023221760
aI268436480
aI65568
aL302232031364409597100032L
aI720575940379279360
aL38685626227668133590597633L
aL22282920707136844948184236032L
aL594907496377133039616L
aI536870914
aI8590458880
aL633825904577024508062938955776L
aL1180591621816922931200L
aI274882101248
aL368934881474191032320L
aL37778934114756975394816L
aI2392537302040576
aI1099528404992
aL9223372036854775840L
aI16842752
aL151115763480625665802240L
aL9453956337776145203200L
aI4503599635759104
aI4503599627501568
aL19342813113834083975168000L
aI2147483712
aL77371253608257771788042240L
aL309485009821345103084519424L
aI35184376283136
aL147576204389490098176L
aL9671425003661107107201024L
aL4835703278458520993792000L
aL10275869466724347985002496L
aI2199023255808
aL75557863725922913353728L
aL2475880078570760549798248480L
aL151115727451828680392704L
aI1153062242095202304
aI3072
aI18014398509482496
aL75557863725914323419152L
aL151115727451828915273728L
aL309485009857373865743745024L
aL316912650057057350374175801348L
aL9444732965739290427393L
aI17592186044928
aI514
aI288230376151711748
aI549764202496
aL151115727451828646854656L
aL37778931862957162233856L
aL2417851639229258349412864L
aL2475880078570760618517725184L
aI516
aI563499709235200
aL9444732965876729380864L
aL18447307023662972928L
aL37783543548975589097472L
aL309485009821345068724785152L
aI35184372097024
aL618970019642690137449562240L
aI35184372090880
aL19342813114397016748720128L
aI1073741952
aL2475880078570761649309876224L
aL613907642773053877780480L
aL633825300114114701298107416576L
aI68719484928
aL19342813113834066795298824L
aI540672
aI36028865738440704
aL9444732965739290427400L
aL79228162514273344792798691328L
aI262272
aI4295229440
aL1267650600228229682971679916032L
aL604481356551388296904704L
aL1180591629513504325632L
aL604462909807314654461952L
aL77371252455337366692823040L
aI34359738496
aI2251799813685312
aI140737488355360
aL1237940186859332864575537152L
aL73787539244791627776L
aL75557863725983042895872L
aL151115727451828646969344L
aL2361183522909799317504L
aI9007199254740992
aL21044980667851464673285111808L
aI335544320
aI134217792
aL19342813113834066796347392L
aL309485009821345343602688000L
aL4726978168888072601600L
aL38685626228794033497440256L
aL9223372036854775812L
aL4951760166364893136451272704L
aL9444732965739290429440L
aI1154047404513689600
aL9592306918328966840320L
aL295147906278864453632L
aI281475110928384
aL618970019642690137449562120L
aL36893488147419103360L
aI576460752304472064
aL9444732965739290427408L
aL1211287002856063997313024L
aL295147905179419934720L
aI9007199263129600
aL18448995873523236864L
aI2251799830462464
aL618970019642690137449562144L
aL36902495346673844224L
aL309485010109575444876492800L
aL2475880078570760549798248960L
aL2417851639229258351509504L
aL5570730176784211237046059008L
aL155838093934698292051968L
aI137438955520
aI36028797287399424
aI562984313159680
aL4990445783369189233187094528L
aI9007474132647936
aL604462909807314587877376L
aI288239172244733952
aI70368744177665
aL302231454903657293676548L
aI17592186077184
aI144185556820033536
aI72057594037928064
aL77371252455336301540933632L
aI18014415689351168
aI141733920768
aL9903525036649525068838207488L
aI8796093022210
aI20971520
aI4505798650626048
aI100663296
aL2361184367334729449472L
aI288371113640067072
aI1073741825
aI1125899906850816
aI1140850688
aL19352257846799806085726208L
aL9671406592945830416613376L
aL75557863725915397160960L
aI1125899907366912
aI70368746274816
aI1125899906844672
aI17301504
aI140874927308800
aL1267650600228373516684779061248L
aL37778931862957228818432L
aL39614081257132168796805529600L
aI20480
aL2475880078570760549798510592L
aL77371252455336267181228032L
aI1099511627778
aL9746964420642947721068544L
aL2475880079723682054405095424L
aL2361183242534334234624L
aL39614081257132173194818486272L
aI108086391056891904
aI36029071896870912
aL9903520314283043298704621568L
aI544
aI549757911040
aL37778931862991521447936L
aL9903520314283042199192994816L
aL302231743134033445388288L
aI4535485464576
aL18446744073709617152L
aL2417851639264442721501184L
aL1180591620717415497728L
aL38685626227668133590597640L
aL19807040630871927407599681536L
aL18446744074246422528L
aI17180393472
aL79228162515417259098150797312L
aI8594128896
aL37778967891754180673536L
aI288230376151711776
aL18889465932028336668672L
aI2305843009213694208
aI33792
aL147573952624036151296L
aL4951760157141522199108124672L
aL158456325028528675187104677888L
aI4611703610613432320
aL9903520314283042199260102656L
aL1180591620717478412288L
aL1511157274518286468382720L
aL75560169568923537113088L
aI70368811286528
aI1152921504606978048
aI288230393331580928
aL74075206670989918208L
aI2305843026393563136
aI1152921573326323712
aL14167099448608935641088L
aL4722366482869645213696L
aI360287970189639680
aL9225623836668461056L
aL20551738933448695970004992L
aL79228162514264337593543952384L
aL37778931862961456676864L
aI38280596832649216
aL9903520332729786272902545408L
aI2305843009213726720
aI4294967297
aI703687441776640
aL2417851639229258349543424L
aL9903520314283042199193026560L
aI2305843009247248384
aI2684354560
aI576460752303423492
aL2361183241434822607104L
aL38685626804128885894021120L
aL1208925819614629191483392L
aL42089961335702929346570223616L
aL79228162514264337593611059200L
aL618970019642690171809300480L
aL309485009821345068724781056L
aL19807342860020988055679664128L
aL154742504946701331381354496L
aI2199023255556
aI2323857407723175936
aI18014398509490176
aI2105344
aL1208925819614663534444544L
aI4503600164241408
aI274877908992
aL336719690685623434772561788928L
aL605053205617673293004800L
aL39616499108771398055121387520L
aL4951760157141521099596500992L
aI536870928
aL9671406556917033397649536L
aL4722366482871792697344L
aI21474836480
aI67141632
aI288230384741646336
aL9671406556917033431203840L
aL151706023262187352489984L
aL1180591691086155481088L
aL2417851711286852387340288L
aL604462981864908625281024L
aL9903520314301056597702475776L
aI9007199254741024
aI72057594037928000
aL151115736459027901579264L
aI274877906944
aL37778931864056673337344L
aI603979776
aI18014398510006272
aI270532608
aL19807040628566084398385987592L
aL154742504910672534362390532L
aL19807040629142545150689411072L
aI18014398509484032
aL1584563250285286751870879006720L
aL316912650057057350374712672256L
aI4398046527488
aI144115188075856896
aL618970020795611642056409088L
aL19807040628566647348339408896L
aI72092778410016768
aI10133099161583616
aL73786976294846595072L
aI68719476740
aI18014398517870592
aL1208925819614629174714368L
aL151134174195902356389888L
aI4521191813414912
aL1267650600228229401498850689024L
aI562951027163136
aL151115727451828713947136L
aL295147905179352825856L
aL4835703278458516698825216L
aI276824064
aL295147905179361214464L
aI18141941858304
aL159075295048171365324537462784L
aI140737488355328
aI9007199256838144
aL154742509522358552789778432L
aL38685626227668133590630400L
aL19342813113834066795298832L
aL316912650057057350374209355776L
aL1180591620717411303936L
aL77390141921267745762050048L
aL154744866093913969184997376L
aI4398046511168
aI4611690416473899008
aI144115188075855880
aL590295810358772760576L
aL2361183241434822606852L
aI1125899906973696
aL2361185493234636292096L
aL1180591620854850256896L
aL4951760157141521116776366080L
aL2361183245832869117952L
aL1267650600228230527396610048000L
aL19807040628566084398385987616L
aI17592186044418
aL4954178008780750357945909248L
aL2417860862601295204188160L
aL1901475900342344102245054808064L
aL9671406556917033397649409L
aL9481626453886709530624L
aL590313824757215133696L
aL19807040665459572545805090816L
aL633825300114114709544444624896L
aL37778931863232039616512L
aI67371008
aI4294967300
aL38685626227668133590597696L
aL309485009821347267748036608L
aL2475880078571886449705091072L
aL9671406556925829490671616L
aI68987912192
aI536870976
aI34359742464
aL2361183241434822610944L
aI72567767433216
aL18455751272964292608L
aL9223372036854779904L
aI4611686027017322496
aI8589934594
aI17594333528064
aL9676128923399903042863104L
aL18446744108069289984L
aL158456325028528675188161642496L
aI4611686018427388160
aI18014398509481984
aI68719476737
aL299759591197780213760L
aI4503599761588224
aI288230376185266176
aL9903520314283042216372862976L
aL590439925546781507584L
aL39614081294025656944191078400L
aL19807116186429810312709406720L
aL1267689285854457069630293803008L
aL19807059518032015876966842368L
aI17184063488
aL1208925819614629175754752L
aL302231454903794732630016L
aI576460752303423520
aI2256197860196352
aI33619968
aL1213648186097498819919872L
aL19342813113834066795307008L
aL19342813113834066795429888L
aL2417851639369995837767680L
aL158456325028528675187222118400L
aI65600
aL2417851639229258349477888L
aL9903520314283042474070900736L
aL154742504910672534899261440L
aL1208962713102776593809408L
aL2417851648236457604153344L
aL4951760157141521099596497152L
aL316931992870171184440971100160L
aI648518346341351424
aI72057596185411584
aI4398046511112
aL9671406556917033397780480L
aI70368744439808
aI4503599627632640
aI36028797018964992
aL316912650057057350374175801600L
aL42501298345826806923264L
aL36893523331791192064L
aI1134695999864832
aI2305843009213694464
aI35184372089344
aI8590196736
aI72057594037928960
aL79228162514264337593546047488L
aL2417851639229258349412608L
aL340010386766614455386112L
aI288230376151777280
aL321120920835135874531328L
aI72057594042122240
aI1099520016384
aL1181168081469714726912L
aL633863985740342368881942200320L
aL2477089004390375178972954624L
aI285212672
aL9449344651757717815296L
aL9223372036855037952L
aL4722368734669458898944L
aL590295810358709846016L
aL2475880078570760549798248452L
aI137439084544
aL19342815419677076008992768L
aI8796227239936
aL9223372174293729280L
aI134218240
aI1064960
aI8392704
aL36965545741457031168L
aL309485012127188077938475008L
aI4611686018427388928
aL10213005324104387267917774848L
aL9903520314283042199193001984L
aL158465996435085592220485550080L
aI576460760893358080
aL4835703278460715722080256L
aL38723405159531090752307200L
aL18889465931478580985856L
aI281474976710688
aL9223372036871553024L
aI549755813888
aL2475880078570901287286603776L
aI2304
aI538968064
aL79230580365903566851893362688L
aI2305843009213759488
aL618970019642690137449594880L
aI16777220
aL309485028268089142434332672L
aI33558528
aI2305843009213693968
aI144115190223339520
aI216172782113783808
aI4611686018431582208
aI274877907968
aL9223372037123211264L
aI1152921504607895552
aI2305843009280802816
aL73786976296985690112L
aI68720525312
aL302231455044394782031872L
aI140737488357376
aL9671406556917033397649920L
aI134217760
aL9671408862760042611343360L
aI67108866
aL309485009821362660910825472L
aL147573952727115366400L
aL75557863866651811774464L
aI1125934266580992
aL1208925819614629174738944L
aL4951760157141521101743980544L
aI563224831328256
aL19807040628566084400533471232L
aL4835703278458516699348992L
aI144115462953762816
aI268435520
aI281474977234944
aI281474976710664
aL618970019642690154629431296L
aI36028814198833152
aL75557863796283067596800L
aL590295810375885520896L
aL475368975085586025561263702016L
aL633825300114186758342389530624L
aI211106232532992
aL18446744623465365504L
aL635063240153400081023250726912L
aI4398583382016
aI4294983680
aI72057594037927952
aL2361192248634077347840L
aL633825300114114700748351602689L
aL604463486268066890776576L
aL39614081257708629549075398656L
aL39614082437723789514183278592L
aL79228162514264337593544081408L
aL39614081257132168796773023744L
aL9444732965773650165760L
aI4194816
aL75631650702209161625600L
aL4838064461699951521431552L
aL19807040628566084398394376192L
aL633825300114114700748418711552L
aL302231454912453386698752L
aI576460752303427584
aL4835703278458516703019008L
aL309485009821345068791889920L
aL75558151956290475130880L
aL158456327389711916621910507520L
aL75557863725914591854592L
aL19808249554385699027560693760L
aL309485083608321363562987520L
aL9671407709838538004496384L
aI1073742848
aI306244774661193728
aI144115737831669760
aL309522788753208025886490624L
aL158456325028528683983180922880L
aI4402341478400
aL1180591620717411434496L
aL158457533954348289816262606848L
aL1307264681485361570293475180544L
aL77371252599451455257051136L
aL633825300114114700756941537280L
aL2785365088392105618523029504L
aI2251799813685264
aI16392
aL151115727487013018927104L
aL642241841670271749062656L
aL4835703278458516698890240L
aL316912650057059602173989486592L
aI8796093054976
aL1237940039285380283489058816L
aI2748779069440
aI1125899906843136
aL4722384497268154695680L
aL75557863725914323419648L
aI594475150812905472
aI536871168
aI13194139533312
aL302231454903657310453760L
aL1237940039285380824654938112L
aI36063981391052800
aL55340232221128654848L
aL37778931862957295927296L
aI640
aI281474976711680
aL302232607825161900523520L
aI4503874505277440
aL18889465931478589243392L
aI288232575174967296
aL1475739525896764129280L
aI140737488355456
aL75557863725914340196352L
aI1152921504606846980
aL147573952598266347520L
aI2251800887427072
aL37778931862957161840640L
aL604462927821713096835072L
aI8598323200
aL618970019660704535959044096L
aL2475880078570760549798264832L
aL151115727451828646903808L
aL19342813113834066828853248L
aI36028797018972160
aL18446744073709551744L
aI1152923703630102528
aL604462909807348947091456L
aL2361183241434823655424L
aL2361183276619194695680L
aI16781312
aI36028801313931264
aI1048704
aL9671443450405180816752640L
aL302231454903657293684736L
aL39614081257132239165516152832L
aL1181744542222018150400L
aI4398046511136
aI288230376151711744
aL9671406556917033666084864L
aL618972380825931572272168960L
aI562949953421344
aI288230376168488960
aI70368760954880
aL9444735217539104112640L
aI824633720832
aL38685626515898509742309376L
aL9671406556917033397682176L
aI36028797019488256
aL633825300114114700748355796992L
aL4951760157213578693634424832L
aL19807040628566154767130165248L
aL19807040628566084467105464320L
aI36028797018966016
aL4835703566688892850536448L
aL178263365657094759585473888256L
aI549755814912
aL1315311291740716542080319488L
aL4951760157429751475748208640L
aI1099780063232
aL604610483759904263766016L
aI2305843009213693954
aI36028797018964224
aL1267650600228301459090741133312L
aI36028797027352576
aI72057594037960704
aL19342813122841266050039808L
aL4835721725202590408376320L
aL316990021309512686641356996608L
aL9903520314283042199192993808L
aI598134325510144
aL618970019642690137450086400L
aI18014399046352896
aL77371252457588066994880512L
aI158329674399744
aI2286984185774080
aI562949955518464
aI17592186044432
aL1242775742563838791597948928L
aL154742505054787722438246400L
aL154893620638124363009228800L
aI2251799813685376
aL316912650057057350374444236800L
aL295724365931656249344L
aI8830452760576
aL9903520314283042199192993856L
aL1208925819614629174706240L
aL147574515539629834240L
aL75557863725914323419264L
aI35184372088834
aI275414777856
aL154742506063594038969237504L
aL19342813113834135514775552L
aL4722366500461831258112L
aI2251799817879552
aL311676187869396584103936L
aI4295098368
aI288230513590665216
aL1237940039287632074712809472L
aI2305843009230471168
aL19342831560578140504850432L
aL2478297930209989808147660800L
aL604462912059114401038336L
aL39614081261743854815199363072L
aL19342813113834066862407680L
aI281474976710672
aL9903520314283046597239504896L
aI2148532224
aL1180609635115920785408L
aL1237977818217243232060833792L
aL39614081257132168797040410624L
aL9671406556917033397911552L
aL158456334473261640926378328064L
aI3458764513820540928
aL1237940039285380309258862592L
aL302231454903657293676608L
aL36893488147419168768L
aL633825300114114700748351603200L
aI2305851805306716160
aL37780084784461768556544L
aL79228163104560147952249602048L
aL590295810496144605184L
aL19807040628566084398385987712L
aI35186519572480
aL316922321463614267407573450752L
aI18014398509482240
aI1152921504606863360
aL316912650057057350376323284992L
aI79164837199872
aL158456325028537682386342641664L
aI8389632
aI18014398543036416
aL314320713099803585423605760L
aL2417851639229292709150720L
aL79228162514264372777916039168L
aI34363932672
aL7427640235712281649394745344L
aL4951760157141521099597021184L
aI2199040032768
aI1152921504606847008
aL77371252455406635925372928L
aL4835703350516110736752640L
aL302231454903661588643840L
aL295147975548097003520L
aI1049600
aL18446884811197906944L
aL2508757194024499019776L
aL2475880078570760550335119360L
aL4722510598057721069568L
aL2417851639229258617847808L
aL604462909807589465260032L
aI281492156579840
aI70368748371968
aI9007336693694464
aL1237940039285380274900172800L
aL4952364620051328414183849984L
aL1209516115424987880357888L
aL4835703282962116326195200L
aL154743685502293251773693952L
aL79228238072128063507867369472L
aL73786976294838730752L
aI1224979098644774912
aI2306405959167115264
aI21990232555520
aL37778931898141533798400L
aL2361183241434822606856L
aL1267650600228229401565422682112L
aI9007749010554880
aI4096
aL18446744073709555712L
aL75557863725914323419138L
aI4100
aL9444732965739290689536L
aL2417851639229258349412352L
aL18446744073709553664L
aI4104
aL151115727451828646838400L
aI2050
aL37778931862957161717760L
aL295147905179352829952L
aL158456325046975419260797452288L
aI140737489403904
aL1208930431300647602094080L
aL73795983494092947456L
aL657655645870358271040159744L
aI2052
aL4845148011424255989252096L
aI68736253952
aI2305843009482129408
aL2475880078570761099554062336L
aL75576310469988032970752L
aI4194304
aL590295810358705655808L
aL2475880078570760549798379520L
aL37778931933325905887232L
aL618970028866062174304337920L
aL2417851639229258349412353L
aI4611686052787126272
aL618970167216642727125975040L
aL154742504910672534630825984L
aL39614081257132731746725396480L
aI576460889742376960
aL77371252455338466204450816L
aL9903520314283042200266735616L
aL151115727733303623548928L
aI72057662757404672
aI2056
aL154742505487133286665814016L
aL1209073393567218851119104L
aL36893488181778841600L
aL4740813226943354765312L
aL79228162514264619068520660992L
aL2361183241434822615040L
aL604462909807331767222272L
aI1152921513196781568
aI4160
aI2251800082120704
aI131074
aI4398046513152
aI576460752320200704
aL168359845342811717386280894464L
aL154742507216515543576084480L
aL147573952590213283840L
aL75557863726464079233024L
aI1075838976
aL38685626227668133724815360L
aI33554436
aL618970019642690137449824256L
aL9671406557198508374360064L
aL19342960687786656471711744L
aL295147922771538870272L
aI4294967298
aI35184506306560
aI576495936675512320
aI2162688
aL151115727454027670093824L
aL295147905179352827904L
aL37778931865156184965120L
aI72057594172145664
aL154742504910672534362390784L
aL1237940043897066293326512128L
aL302231456029557200519168L
aI4503599628419072
aI4432406249472
aI6442450944
aI549755815936
aL19342813113834066795298880L
aI1049088
aL1267650600228231653296516890624L
aI4503599627370500
aL316951335683285018507766398976L
aL2417851639229258366189568L
aL9903520314283042199194042368L
aL151115727451828651032576L
aI8388624
aL590296936258612494336L
aI131076
aL79228162661838290183220363264L
aI4224
aI70369012613120
aL36893488147419105280L
aI137440002048
aI135168
aL1346878762742493739090247155712L
aI524290
aL1267650600228229401496719982592L
aL158456325323676580366440726528L
aI288230376151715840
aL4952062388596424756890173440L
aL39614119036064031753933684736L
aL4951835715005247013919916032L
aI4398047559680
aI73183493944770560
aI2305983746702049280
aL2475880078570760549798248448L
aI131072
aL79228162551157825740963053568L
aI2251799813693440
aL9671406556917033401843712L
aL309485009893402662762708992L
aL9444877080927366283264L
aI2251799814209536
aI2155872256
aI2251799813687296
aI576460752303685632
aL295148468129306247168L
aL9444732965739290558464L
aL1180735735905487159296L
aL77371252455336267181195265L
aL148726874094283259904L
aI2199023255554
aL4951760157141521168315973632L
aL39894552047282762765303808L
aL18889470435078208225280L
aI192
aI144115188075855872
aI2314850208468434944
aI2080
aL1208925819614637764640768L
aI297237575406452736
aL590295810358705668096L
aI6144
aL9223372037928517632L
aL5106502662052193633958887424L
aI137438953728
aI144255925564211200
aL38685663121156281009700864L
aL158533696280984011454269095936L
aI4294975488
aI17867063951360
aI134217730
aI69206016
aL4951760157141521099600691200L
aI2199157473280
aL158456325028529801086994743296L
aL151115727522197391015936L
aL29710560942849126597578981376L
aI549755846656
aI562967133290496
aL2361183241434822606864L
aI2305843009213825024
aL9903520314283042199729864704L
aL302231454903657294200832L
aI3145728
aI2305843077933170688
aI1073742080
aL2417851639229258349412360L
aL36893488216138579968L
aL49517601571415210995964968960L
aL590295810358705782784L
aL38685626227668135738081280L
aL633825300114114700748485820416L
aI74309393851613184
aI36310271995674624
aL75557863725914323419392L
aL1267650902459684305153996881920L
aL18734974449861263360L
aL9903521494874662916604297216L
aI139264
aI18016597532737536
aL9223372036856872960L
aI16512
aI2305843009347911680
aL36893488697174917120L
aL2361183241452002476032L
aL19645044568737724088975360L
aL1267650600818525211855408857088L
aI4611686018427387920
aL77371252455336267181195264L
aI1090519040
aI72057594306363392
aI4456448
aL302231454903657297870848L
aI1374389534720
aI72057611217797120
aL1237940039303394673408606208L
aL2361183241434822868992L
aI72057594038059008
aL2361183241434830995456L
aL618970019642690137449566208L
aI281475010265088
aI4398046773248
aL147573952589676421120L
aI131073
aL37778931862957161709576L
aL316913254519967157688763154432L
aL1208926396075381478129664L
aI292733975779082240
aI17179869184
aL1180591638309597347840L
aL9903520315435963703799840768L
aL39290089137475448177950720L
aI10240
aL2361183241435091042304L
aI35184908959744
aI4294967552
aL77371252455336267181195266L
aL4951760304715473689272909824L
aL2361183804384776028160L
aI8589934592
aL2475880078570760549798256640L
aI8590000128
aL309485009821345618480594944L
aL1257282852399214341694423040L
aL316912650057057491111664156672L
aI1099511628800
aI16779264
aL151115727451897366315008L
aL113336795588871485128704L
aI16777472
aL147573952589676675072L
aL151115727451828781056000L
aL38685921375573312943423488L
aI1073741840
aL18889465931478581379072L
aL590295810358705913856L
aL36911502545928585216L
aL309485010397805821028204544L
aI8704
aI175921860444160
aL1426106925256758076683791106048L
aI144115188075855874
aL633825300114114700748351619072L
aI16777232
aL2417856250915276776800256L
aL38685626227668133590597648L
aL1180591620717411305472L
aL4951760157141523298619752448L
aL1237940039285380275167559680L
aI8796093087744
aL19807040628566084398520205312L
aL19807040628566084398385987648L
aL4951764879508003969241710592L
aI9070970929152
aL633825300114258815936427458560L
aI274877911040
aL590295810359242522624L
aI137455730688
aL4951760157141556283968585728L
aL4722366482869646262272L
aL295292020367428681728L
aI282574488338432
aI142606336
aI393216
aI18014535948435456
aI4503668346847232
aL79228167236630820463189164032L
aL618970038089434211159113728L
aL18446744073717940224L
aL39614081257134420596585660416L
aL1284483683340543498125312L
aI549755813904
aL19807040628566084398388084736L
aL77371252455353859367239680L
aL2475898968036692028379103232L
aI2251799813685249
aI4294967424
aL618970019642690137516670976L
aL1237940039285380549777031168L
aI281474976841728
aI137438953474
aI65552
aL4722366764344621924352L
aL590295810363000619008L
aL618970019642690137449562116L
aI137573171200
aI281749854617600
aI17609365913600
aL118842243771396506390315925504L
aL2417851639229258349412354L
aI288230376688582656
aI36028797052518400
aL604462909807314587357184L
aL39614081257136672396399345664L
aL39633424070246002863567273984L
aL19807040628638141992423915520L
aL2475880078606789346817212416L
aL19345174297075501617905664L
aI288247968337756160
aI67174400
aL3022314549036572936765440L
aL37778932144432138420224L
aL154742504910681330455412736L
aI131088
aL590295811458217279488L
aL316912650057057350374192578560L
aI576460752571858944
aI563087392374784
aI2252349569499136
aL39614081257132168831131713536L
aL79228162514264337593543954432L
aL316912650057633811126479224832L
aI18014432869220352
aL39614081257132168796771979264L
aL37778931862957161709569L
aI39582418599936
aL36893488149566586880L
aL36897991747046473728L
aL1238544502195187589486477312L
aI17729624997888
aI8388864
aI144123984168878080
aI4608
aL9444732965739290427648L
aI1125899906843648
aI147456
aI70368744178176
aL302231454938841665765376L
aL56668397794435742564352L
aL158765810038350020255812681728L
aL39614085979498651666417188864L
aL295147905179353874432L
aL1287457640856795485895089192960L
aI36028797019029504
aL9903520314283042199461429248L
aL4951760157141521099596759040L
aI144115188076904448
aI140771848093696
aI34359738376
aI12582912
aL79228162514264337595691433984L
aL38685626227668133590663168L
aI1152921504607109120
aI35184372350976
aL1267650600228229542234191560704L
aL2417851639229258353606656L
aI2064
aL154742504910954009339101184L
aL1180591620717412352000L
aL9444732965739290427392L
aL147573953689188040704L
aI1152921642045800448
aL2475880373718665729151074304L
aL21760664753063325144711168L
aI2113536
aL36893488147419103236L
aL618970019642698933542584320L
aL37778931863506917523456L
aL9223372036854775872L
aI144115188075855876
aL19342814266755571402145792L
aI266240
aL302231454903657302065152L
aL396140812571321687967719751680L
aI4503603922337792
aL79228162514264337593543950338L
aL2475880087794132586653024256L
aI563018672898048
aI25769803776
aL10880332376531662572355584L
aI18432
aI1152921504623624192
aL9444732967938313682944L
aI1649267441664
aL19342813113834066795299328L
aL590295819154798673920L
aL311902861460574327074193408L
aL4951760157141538691782541312L
aI144115188075856384
aI68727865344
aI37748736
aL4951760157141521099596562432L
aI35184372088848
aL147573952589684801536L
aL75557864851814230261760L
aI144115188075855904
aI2305843009214742528
aI264192
aL2417851639229260496896000L
aL158456325028528675187087901696L
aL19807040628566084398654423040L
aL9223372036854775816L
aL1237940039429495462974980096L
aL14855280471424563298789490688L
aI1099511629824
aL1208925819614629174722560L
aI134221824
aL18889465931478585049088L
aL151115727451828648935424L
aL154742504910672534362390544L
aL158456929491438482501675253760L
aI4194308
aL9913191720839959232590643200L
aI545259520
aL77371252491365064200159232L
aI2251834173423616
aI9007199254743040
aI141012366262272
aL163408085185670196286684397568L
aL1208925819614904052613120L
aL75557863730312369930240L
aL2417851639230357861040128L
aI35184372613120
aI70368744210432
aL9903520351176530346612097024L
aI576460752336977920
aL316912650057057350382765735936L
aL37815825351104580812800L
aL9903520314283042199327211520L
aI8388672
aL147573961385769435136L
aL19342813118337666422669312L
aL1267650600228229401496703467520L
aI1048608
aL1227815285546107755560960L
aI9895604649984
aL19342813113834204234252288L
aL590295810358714040320L
aI150994944
aI655360
aL19342813185891660833226752L
aI432345564227567616
aL309485009821349466771292160L
aI4198400
aI1126174784749568
aL36893488147419627520L
aI67633152
aL9671406556917033531867136L
aI140737490452480
aI268435457
aL2475880078570760550066683904L
aL73791479894465576960L
aI17592186568704
aL19342813113834616551112704L
aI34896609280
aL2417851639238054442434560L
aL618970019642690137449578496L
aI4611721202799476736
aL4835703279584416605667328L
aI4503599627370752
aL2475882439754001984620855296L
aL75557872733113578160128L
aL39614081257132168796771976192L
aL316912650057057350374175801346L
aI281474976727040
aI2199023288320
aL2475880078570760824676155392L
aL2361183241434822606880L
aL37778931862957161711616L
aI140737488356352
aI281474976710912
aI27021597764222976
aL39614081275578912870481526784L
aI68720001024
aL221360928884514619392L
aL73786976303428141056L
aL36893488147423297536L
aL590300313958333022208L
aI16777248
aI1099511660544
aI1125917086711808
aL151115727451828646846464L
aL19342813113838464841809920L
aL316912650057057350374310019072L
aL73786980692884717568L
aL38685626227949608567308288L
aL2417851639229258349412356L
aL75557863725914390528000L
aL295147905213712564224L
aI137438986240
aL9223389629040820224L
aL4951760157142646999503339520L
aL37778931862957161709696L
aL295147913975445848064L
aI67109888
aI36030996042219520
aI576460752305520640
aI32896
aL75594757214061742522368L
aI4294967296
aL19807040628566084398385989632L
aL591448731863312498688L
aL39614081257132168796772499456L
aL38685626263696930609561600L
aL604464062728819194200064L
aL4722366482869661990912L
aL2475880078588774948307730432L
aI18014398509481985
aL2419032230849975760715776L
aL1208925819614629174771712L
aI562958543355904
aI18014398509547520
aL2417851639229258349416448L
aL151115727451828647362560L
aI72057594037936128
aL4835703287465715953565696L
aI281474976711168
aL9904729240102656828367699968L
aL9444805023333328355328L
aL680020773533228910772224L
aI17592219598848
aI72057598332895232
aI2097280
aL1237940039285380277046607872L
aL1180591620992289210368L
aI22517998136852480
aL4722366623607133569024L
aI34359738368
aL4759259971017064316928L
aL1208925819614629178900480L
aL9444732965808009904128L
aI2214592512
aI72057594038452224
aL309485009830352267979522048L
aL309787241276248726018457600L
aL158456325028528675187087901184L
aL2417851639229258483630080L
aL39614081257132168796780363776L
aL4951760157142084049549918208L
aI536936448
aI72057594037929984
aL9223372036854775808L
aL604462909807314587615232L
aI144115189149597696
aL4835703854919269002248192L
aL1268269570247872091634152767488L
aI34359738400
aI526336
aI138512695296
aI33554688
aL1267650600228229401634142158848L
aI72057594046316544
aL147862182965828124672L
aI144115188077953024
aI72059793061183488
aL2630622583481433084160638976L
aL73786976294905315328L
aI4398080065536
aL2427296372194997639839744L
aL79228162514266589393357635584L
aL1208925819614629174706304L
aL198070406285660843983859875840L
aL158456325028528675187087902720L
aL154780283842535491524100096L
aL295150156979166511104L
aL79228162514264337593543983104L
aI33554448
aL9444732965739290427904L
aI268437504
aL1267960085238050746565427986432L
aL618970019642690687205376000L
aL4835703278458517235695616L
aI549755879424
aL19807040628566084398386020352L
aL2475880078570760549798248449L
aL79228162514264355185729994752L
aI134217728
aL9671406559168833211334656L
aI16400
aL9671406556917308275556352L
aL304592638145092116283392L
aI70368744177666
aL2361183241434823131136L
aL158456325102315651481926107136L
aI18691697672192
aL9223380832947798016L
aI288234774198222848
aL37778931862957162758144L
aI4294967312
aL232113757366008801543585792L
aI137438953536
aL154742504912924334176075776L
aL18889465931478581116928L
aL18446744073977987072L
aI1099511627792
aL19184613836657933680640L
aL4951760157141521099596505088L
aL618970314790595316802387968L
aI281543696187392
aL2514565704798428683388846080L
aL3541774862152233910272L
aI536870913
aI1152921504606912512
aI4611686018427387904
aL73786976294838208512L
aL84179922671405858693140447232L
aI17592186175488
aI8796095119360
aL158456325028528675187121455104L
aI1125899906842880
aL618970019642690137449693184L
aL38685626227668133591121920L
aL633825300115267622252958449664L
aL9903520314283042199192997888L
aL2417851639229258349412384L
aI35201551958016
aI40532396646334464
aL604462909807383306829824L
aI8796093026304
aL302379028856246970089472L
aL618970019642690137450610688L
aI70385924046848
aL36893490346442358784L
aI68723671040
aI4644337115725824
aL302821750714015999328256L
aL19807040628570587998013358080L
aI2305843009213693984
aL9690296022848511978504192L
aL618970019642690137583779840L
aL79228162514264337594617692160L
aL309485009821345068741558272L
aL4835703278458516698824736L
aL75557863725914323421184L
aL38685626232171733217968128L
aI171798691840
aI8404992
aI1126037345796096
aL9671406556917033397714944L
aL79228313629991789422190788608L
aL158456325028528675187087933440L
aI8813272891392
aI4398046511360
aI2377900603251621888
aL77371842751146625886846976L
aI35321811042304
aL18889465931478580858880L
aL590295810358705651744L
aI2201170739200
aL4722366482869645246464L
aI163840
aL37778931862957161709600L
aI2098176
aL18446744073713745920L
aL1268888540267514781771602329600L
aI4563402752
aL36893488147435880448L
aL18446744073710075904L
aL9671406556917033464758272L
aL184467440737095516160L
aL39614081257132168796776169472L
aL9444732966289046241280L
aL590367867952743579648L
aL295147905179352858624L
aI5242880
aI8519680
aL316912650057057350374184189952L
aL79228162514264337593543950400L
aL1267650600228229405894749716480L
aL4836293574268875404476416L
aI562949953421824
aI137438961664
aL9903522675466283634015600640L
aL147578456189303783424L
aL1180591620726001238016L
aI549755813952
aI1536
aL9367487224930631680L
aI274877906948
aL2417851639229275529281536L
aI32768
aL75557863725914323943424L
aL36893488147553320960L
aL604462909807314587355136L
aL37778931880549347753984L
aL2475880078570760549932466176L
aI2199023255552
aL19807040628566084398385987600L
aL9903520314283042233552732160L
aI2149580800
aL73789228094651891712L
aL316912650057057350374175801856L
aL1237940039285380274899124228L
aL77371252455336267449630720L
aI281474976710656
aI70368878395392
aI17592194433024
aL158475667841642509253883199488L
aI576460752303423496
aL158456325028528675187356336128L
aI4503599644147712
aI2253998836940800
aI262400
aL38685626227668133590598144L
aL19342813131848465304780800L
aL4722366483007084167168L
aL75557863725914327613440L
aL47223664828696452136960L
aL79228162514264337610723819520L
aL619574482552497452036915200L
aL618970019642690137449562114L
aL1208925819614629174968320L
aL9444741972938545168384L
aL9903520314283042199192995840L
aL1180596124317038673920L
aI2252074691592192
aL4835703278458516698824720L
aI4611686018427387968
aL157160356549901792711802880L
aL19342813113869251167387648L
aL1267650600228229401496703205376L
aI402653184
aI1236950581248
aI1099511631872
aL9671406556987402141827072L
aI35184372088836
aL2656331146614175432704L
aL38685626227668133590597636L
aL2420212822470693172019200L
aL19342813113974804283654144L
aL604462909807864343166976L
aL2361183241434826801152L
aI576465150349934592
aI167772160
aI281476050452480
aL316912650057057913324129222656L
aI1179648
aL1237940040438301779505971200L
aL9973638011820690691325952L
aL604462910370264540774400L
aL154742504910742903106568192L
aL79228162514264337593543958528L
aI9007199254773760
aL1208925819614629174706688L
aL38685626227668133591646208L
aL158456325028528675187087900688L
aL77371326242312562019401728L
aL1547425049106725343623905280L
aI4899916394579099648
aI1048576
aL38685626227668408468504576L
aL604462914310914214723584L
aL38369227673315867361280L
aI8796093022464
aL9671554130869623074062336L
aL9444732965739558862848L
aL37778940870156416450560L
aL9223372054034644992L
aI17592186060800
aL73786976294838239232L
aI144115188075856000
aI17592186048512
aL1237940039285389070992146432L
aI4194312
aL316912650057057350649053708288L
aL2417999213181848025825280L
aL605643501428031998656512L
aI4503599627378688
aI32769
aI16778240
aL2417853945072267563106304L
aL18590859261785407488L
aI289356276058554368
aL39614081257132169071649882112L
aL19342822337206103650074624L
aL9903520314283042199193518080L
aI8623489024
aL9671406556917033397649440L
aL38761184091394047914016768L
aL160932205107099435736886149120L
aL18889465931478580862976L
aI140737555464192
aI16793600
aL4951760157141521133956235264L
aL19342813113834066812076032L
aL2475880078570760584157986816L
aL39614081257132168796771975424L
aL1267650600230535244505916899328L
aI2308094809027379200
aL39614081404706121386448388096L
aL309485009965460256800636928L
aL604462909807314591547392L
aI1155173304420532224
aI288230376151711808
aI288230376285929472
aL9671996852727392103301120L
aI4611686018427420672
aL18446748471756062720L
aI1152921504608944128
aI68719738880
aI4611686018460942336
aI4831838208
aI18031990695526400
aL20116525638387429467110768640L
aL2361471471810974318592L
aL1237940039285380274903318528L
aL1180592183667364724736L
aI36028797018963969
aI2164260864
aL9903520318894728217620381696L
aL73804990693347688448L
aI16908288
aI1125908496777216
aL633825375671978426662675021824L
aI4398046511108
aL633825300114114700748351864832L
aI4202496
aL75562475411932750807040L
aL1210106411235346586009600L
aL5902958103587056517120L
aL4951760157141521099663605760L
aI67112960
aI35184405643264
aL633825300151008188895770705920L
aI67109120
aL154742504910672551542259712L
aL295183933976371789824L
aL4722366482938364690432L
aL158456325028528675187087900676L
aL590295810358705651716L
aI134250496
aL1267650600228229401771581112320L
aI294912
aL73786976295375077376L
aL618970019642690206169038848L
aI562954248388608
aL302231454903657293676672L
aL4722366487267691724800L
aI2251799813685280
aL39614081257132168796772237312L
aI16809984
aL2398076729582241710080L
aI131080
aL18889465931616019808256L
aL4971102970255355166391795712L
aI34360000512
aI1073807360
aL332041393326771929088L
aI562949953421312
aL79228162809412242772896776192L
aI2199023256576
aL4835703278458516699086848L
aL9671406557479983351070720L
aI144150372447944704
aL19342813113834066795300864L
aI288511851128422400
aL313594649253062377472L
aL75557863725914323419168L
aL590295810367295586304L
aL1237940039285384672945635328L
aL604462909807314587353090L
aL39614081257132168796771975184L
aL38685626227668133590601728L
aL295147905179369603072L
aI4398314946560
aL633825300114114982223328313344L
aL316912650093950838521594904576L
aL1180591620717411311616L
aI9007233614479360
aL1180591620717411303488L
aI2251799815782400
aL1267650601408821022214114508800L
aL604462909807314721570816L
aL158456325028530926986901585920L
aL295147905316791779328L
aL604463053922502663208960L
aI1099511693312
aL590295880727449829376L
aL39614081257132168796771975232L
aI2251799813685256
aL9903520314571272575344705536L
aI343597383680
aL618970019786805325525417984L
aL39614081257132168796771975168L
aI288230376151728128
aL38685626227668133592694784L
aL309485009821345070872264704L
aL633825300118726386766778990592L
aL73786976294838272000L
aI8589938688
aI36283883716608
aL36894614047325945856L
aI68719477760
aI8797166764032
aL1267650600228229401496837423104L
aI36037593111986176
aL73786976432277159936L
aI134479872
aL295147905179487043584L
aL2417851639229258349420544L
aI4194368
aI1125899908939776
aL19807040628566101990572032000L
aL295147905248072302592L
aI67108880
aL604462910088789564063744L
aL19807040628566084398402764800L
aL19807040628566084398385987585L
aI5188146770730811392
aI142936511610880
aI2305843009213698048
aI35184372219904
aI4227072
aL20752587082923245568L
aL316912650057129407968213729280L
aI17592186044672
aL9671480343893328235855872L
aL302231454903657293709312L
aI2473901162496
aI72057594037928192
aL1237940039285380274899124288L
aL147574022958420590592L
aL633825300114114700748352651264L
aL151115727451828655226880L
aI72057594071482368
aL618970019647193737076932608L
aI551903297536
aL151115727452103524745216L
aL302231472918055803158528L
aL2951479051793528258560L
aL18446744073709568000L
aI4507997673881600
aL19807040628566084398385987586L
aI18014398509483008
aI17213423616
aL9903520314283042199197188096L
aL77371252455336335900672000L
aI2305843009213693960
aL6189700196426901374495621120L
aL38685626227808871078952960L
aL633825300187901677043189809152L
aI4611686018427392000
aL4951760157141521237035450368L
aL1180591620717428080640L
aI9007199288295424
aL158458742880167904445437313024L
aL19342813113834066795364352L
aL75557935783508361347072L
aL19809458480205313656735399936L
aL147573970181862457344L
aI140737488617472
aI576460752303423552
aI2251799813686272
aI9007199254806528
aL151263301404418323251200L
aI288230376151973888
aI4611686018427388416
aL1237940048508752311753900032L
aL18889610046666656710656L
aL18446744073709682688L
aI2251799847239680
aI72057594037993472
aL147573952589676414976L
aI144115188080050176
aL79228163694855958310955253760L
aL633825300704410511107057254400L
aI8796093546496
aL2475880078570760550871990272L
aI2305843009213956096
aL155044736365576191656067072L
aL77371252455336267181457408L
aL1237940039285380274915901440L
aL1208925819614630248448000L
aL1180591620717545521152L
aL2417851639229258349412416L
aI2305843146652647424
aL309485009821345068858998784L
aL4722366482869645214720L
aL147574093327164768256L
aL19342813114959966702141440L
aI1099511627840
aL77371252455336269328678912L
aL4722366482869647310848L
aI6597069766656
aL618970019642690412327469056L
aI17179869188
aL9227875636482146304L
aL39614081266355540833626750976L
aI557056
aL18889466001847325032448L
aL4722366482870182084608L
aL79228162588051313888382156800L
aI4785074604081152
aL158456325028528675187087900928L
aL309485009821485806213136384L
aL633844642927228534815146901504L
aI17448304640
aL316912650057057350442895278080L
aL4835703278458516765933568L
aL151116880373333253685248L
aL158456325028546689585597382656L
aL1208925821866428988391424L
aI4611686018427453440
aI34359738880
aL18446744073710600192L
aL73788102194745049088L
aL4951760157141521099630051328L
aI70368744177680
aI844424930131968
aL316912650057057350374175801344L
aI268959744
aL154742504910672534362456064L
aI35184380477440
aI4611686018494496768
aL158456325065422163334507003904L
aL9903520461856994788869406720L
aL9671406556917033397649412L
aL618970609938500496155213824L
aI1152921504606846984
aL151115727451828646840320L
aL151115727451830794321920L
aL38685626227668133624152064L
aI549890031616
aI2199023257600
aI1153202979583557632
aL9903520314283077383565082624L
aL77371270902080340890746880L
aL75557863725914323484672L
aL2417851639229266939346944L
aL4722366482873940180992L
aL2475880078570760549798248450L
aL151115727451828663615488L
aL19343108261739246148124672L
aL633825300114114702947374858240L
aI1073743872
aL4835703278462914745335808L
aL77371252455336271476162560L
aL302231454903657562112000L
aI288230376151711872
aI72057594054705152
aI70368744701952
aI144115188075855936
aI618475290624
aL2361183241434822606912L
aI277025390592
aL302231463910856548417536L
aI272629760
aI4503599631564800
aL604462909807314587353092L
aL295147907378376081408L
aI576461302059237376
aI1152925902653358080
aL37778931862957170098176L
aI17593259786240
aL18889465931480728338432L
aL9223372036854775809L
aL158456325028528675187087900672L
aL297453748188566519808L
aI9007207844675584
aL158461160731807133703786725376L
aL2417852215690010652835840L
aI68719478784
aI562949953454080
aL295147905179354923008L
aI274877972480
aL590296373308659073024L
aI140806207832064
aL154742504910672534362390529L
aI17825792
aL9903520323506414236047769600L
aL193428131138340667952988160L
aI8796093153280
aI36864
aL2417851639229533227319296L
aL19807041218861894757091639296L
aL1267650600228805862249006628864L
aI576460769483292672
aI35184372105216
aL1180591620717413400576L
aL9444732966838802055168L
aL147573954788699668480L
aI35184372092928
aL4835703278458516698824708L
aL158456325029681596691694747648L
aL2361187745034449977344L
aI805306368
aL1208925963729817250562048L
aL38685626227669233102225408L
aI549755822080
aI144115222435594240
aL1180591620718485045248L
aL9903520314355099793230921728L
aL5137934733362173992501248L
aI4503599627371008
aI19140298416324608
aI8589935616
aL4722366518054017302528L
aL19342813113834066795298848L
aI70368744179712
aL79228162514264337593544998912L
aI8796093022216
aI671088640
aL38959523483674573012992L
aI33570816
aL18889465932578092482560L
aI9007199254745088
aL9444732965739323981824L
aL37778931863025881186304L
aL618970019642971612426272768L
aI4194306
aL4835850852411106375237632L
aL158456325028528675187088949248L
aL75557865977714137104384L
aL633825300114114700748359991296L
aI18014398643699712
aL1208925819896104151416832L
aL2476031194298212378445086720L
aL309485009821345068724781312L
aI9007199255003136
aI288793326105133056
aL9903520314283042201340477440L
aI9077567998918656
aI65664
aI5368709120
aI36046389205008384
aI90071992547409920
aI4503600701112320
aI206158430208
aL2475880097017504623507800064L
aL316912659501790316113466228736L
aI1024
aL9903520314283042199193255936L
aI1073774592
aL4835707890144535126212608L
aL295152408778980196352L
aI33685504
aI281612415664128
aL9980891566738378466374189056L
aL147573952589944848384L
aL75557863726189201326080L
aL1267650600228229401496703238144L
aI274878169088
aL309494454554310808015208448L
aL75558007841102399275008L
aL618970019642690137449562112L
aL76148159536273029070848L
aL9444732974535383449600L
aI4503599627370560
aL2417851639299627093590016L
aL9671406561420633025019904L
aL638777060271256221847948099584L
aL19807040628566084398387036160L
aL1267650600228229471865447383040L
aI8589934656
aL9671406556917033397653504L
aI68719476736
aL18889465933677604110336L
aL4835703278458516698824960L
aI140737505132544
aL4951760159447364108810190848L
aL38685626227668134127468544L
aL154742504910674733385646080L
aL2417851639229258357800960L
aL318150590096342730649074925568L
aL9444732965739290435584L
aL5017514388048998039552L
aL590295827950891696128L
aI1125899906842624
aI268435968
aI292057776128
aL618970019643253087402983424L
aI537395200
aL39614081257132168934210928640L
aL18889466212953557565440L
aL4835703280710316512509952L
aL633825300114402931124503314432L
aI4611686018427387906
aL1237940039285380274899124480L
aI72620543991349248
aI144115188075888640
aL154742504910672809240297472L
aL302231454903691653414912L
aL158456326209120295904499204096L
aI17179870208
aL75557863725948683157504L
aL174085318024506601157689344L
aL147582959788931153920L
aL9223373136366403584L
aL19342813113834067869040640L
aI536870916
aL37037603335494959104L
aI1729382256910270464
aL73786976295106641920L
aI4538783999459328
aL19807040628567210298292830208L
aL1237940039285380274899124240L
aL309485009821345068724781072L
aL18891771774487794548736L
aL638312832756524204244860928L
aI2147483648
aL11805916207174113034240L
aL633825319003580632226932457472L
aL4722366553238389391360L
aI8390656
aI131136
aI687194767360
aL38685626227685725776642048L
aI576460752303423489
aI18014398509498368
aI34360786944
aL633825300114114700748385157120L
aI541065216
aL19807040628566225135874342912L
aL737869762948382064640L
aL4722375490068899954688L
aI54043195528445952
aL309485009821345068724781120L
aI1152922054362660864
aI281474976776192
aL77371289348824414600298496L
aL590295810358705659904L
aI4611686568183201792
aI281474976710657
aI8804682956800
aL4951760157143772899410182144L
aI72057731476881408
aL38685626227668133590597888L
aI18014407099416576
aL73786976299133173760L
aL79228200293196200550705659904L
aI1048577
aI2199023255568
aL2475880078570764947844759552L
aL36893488156009037824L
aI4296015872
aL37778931862959309193216L
aL1180591761454899658752L
aL158456325028528675187087966208L
aL154761394376604012943245312L
aI5764607523034234880
aI4503599627370512
aI2097168
aI1099513724928
aL9223372036854784000L
aI35184372089088
aL604462909807314587484160L
aI4503599627370624
aL77371252455336267315412992L
aI1073741888
aL302231454903657293938688L
aI2112
aL9671406556917102117126144L
aL75557881740312832901120L
aL147575078489583255552L
aL302231454903932171583488L
aL9903520904578852557898645504L
aL4951760157141521103891464192L
aL4722367045819598635008L
aL9259400833873739776L
aL39652766883359836930362572800L
aI4398063288320
aL4951760157141521099596497408L
aL316912650057057350374175802368L
aL316913858982876965003350507520L
aI34393292800
aI4611686018444165120
aL154742504910672534362392576L
aI4503599627403264
aI17592186044424
aL1267650600228229401496703205392L
aL151115727451828646838304L
aI2251937252638720
aL4835703278459066454638592L
aI4611694814520410112
aI18014398509486080
aL4835703278458516698841088L
aI562949986975744
aL79228162514264337593812385792L
aI9008298766368768
aL9223372041149743104L
aI70506183131136
aL2475880226144713139474661376L
aL37778931862957161713664L
aL302231454903657293677568L
aL38987857682571790884274176L
aI562949953486848
aI1125899906842752
aL18446744073709552640L
aI2216203124736
aL41505174165846491136L
aL1267660271634786318530100854784L
aL79228162514264337593543950344L
aL36893488147419104256L
aI18014398526259200
aL18889465949070766899200L
aI34359738624
aI4303355904
aI1028
aI549756338176
aI140737492549632
aI17592186044544
aI1125899906842688
aL309485009821345069798522880L
aL4911261142184431022243840L
aL18889465931478580854784L
aL4835703278458516698955776L
aL604462909807316734836736L
aL316912650057057352573199056896L
aI301989888
aI135266304
aI18014398509744128
aI144115256795332608
aI1032
aL151410875357007999664128L
aI577023702256844800
aL9922863127396876265988292608L
aI1297036692682702848
aL295148045916841181184L
aL633825300114114700748351602692L
aI580964351930793984
aI562949953421320
aI1081344
aI4503599895805952
aI77309411328
aL19807040628566084406975922176L
aI1025
aI67584
aL9671406556917033397649664L
aL4835703278476108884869120L
aL154742523357416608071942144L
aI549755813920
aI3298534883328
aL83010348331692982272L
aL316912650057057350374176063488L
aL39614090701865134536062402560L
aL309485009839359467234263040L
aL4835703278458516732379136L
aI1407374883553280
aL2370406613471677382656L
aI566935683072
aL2361183241434822606976L
aL1237940039285380274907512832L
aL38685626227668134664339456L
aI4259840
aL295147905179352826880L
aI1026
aI4611686035607257088
aL19361702579765545376153600L
aL295147905729108639744L
aI137447342080
aL2361219270231841570816L
aI4398050705408
aL11141460353568422474092118016L
aL1180591620717411303456L
aL4951760157159535498105978880L
aI288231475663339520
aL604462909807315124224000L
aL37788155234994016485376L
aL19347535480316936440512512L
aI17179871232
aI4503599627370497
aL39614081257204226390809903104L
aI10737418240
aI137439215616
aL18898689303515435630592L
aL9223372036855300096L
aL309485009821380253096869888L
aI1168231104512
aL154742504911235484315811840L
aL1267650600246676145570412756992L
aI2199023259648
aI9007199321849856
aL2475880078570760549806637056L
aL77371252455477004669550592L
aL9671406556917583153463296L
aL1208925819623425267728384L
aI1152921504606847104
aI35185445830656
aL73786976294838207488L
aI562949953421313
aI17600775979008
aL73786976295911948288L
aL37778931867355208220672L
aL316912650075504094447885352960L
aI43980465111040
aL604499803295462006456320L
aL75557863725914323420160L
aL79228162514264478331032305664L
aI4503599627894784
aL4854592744389995279679488L
aI4503599627372544
aI9007199254872064
aI1125899906875392
aL1267650600228233905096330575872L
aI17179934720
aL309485009821345068725829632L
aL1208925819614629183094784L
aL18889465931478580855808L
aI34603008
aL1237949484018346014189551616L
aL295147905179352891392L
aI288230376151719936
aL633825300114114700748351603712L
aL18889465931478580854816L
aL158456325028528675187089997824L
aI1152921521786716160
aL36893488147419119616L
aL2417851639229258349674496L
aI4352
aI68719480832
aI288230925907525632
aL151115727452928158466048L
aL792281625142643375935439503360L
aL2361183241443412541440L
aL79847132533907027730993512448L
aI324259173170675712
aI145241087982698496
aL73786976294871760896L
aI136314880
aI536871424
aI37154696925806592
aI196608
aL2455630571092215511121920L
aI4947802324992
aL19342850007322214214402048L
aL2475880083182446568225636352L
aL309485009821345068724783104L
aL9223372586610589696L
aL19342813402064442947010560L
aL79228162514264337593552338944L
aI4611686018427518976
aI2200096997376
aL295147905181500309504L
aI32776
aI4611686087146864640
aL77371252455336267189583872L
aI17179901952
aL316912650057057367966361845760L
aL79228162514552567969695662080L
aL36893488147419234304L
aI146366987889541120
aL9223372036863164416L
aL154742504910672534362390656L
aL4951760157141521099596497024L
aI36028797153181696
aI1170935903116328960
aI8589934720
aL9223372037391646720L
aI281475513581568
aI9007199254741056
aI85899345920
aI4611686018561605632
aI8388616
aL696341272098026404630757376L
aL18889465931478580920320L
aI274877923328
aL619121135370141966096400384L
aL19342813113834066799493120L
aL147573952589676413952L
aI565148976676864
aI45035996273704960
aI72057594037927937
aI274877907072
aL4835703422573704774680576L
aI140737488363520
aL604462945836111606317056L
aL1272602360385370922596299702272L
aI9216
aL1189814992754266079232L
aL4724672325878858907648L
aL9671406557057770886004736L
aL37778932003694650064896L
aL19342813113834067063734272L
aI570425344
aL1240357890924609533248536576L
aI70368777732096
aL73786976294838206468L
aL19961783133476756932748378112L
aL4951760157141591468340674560L
aL36893488284858056704L
aI2233382993920
aI4612248968380809216
aI268435464
aL633825300114114700749425344512L
aI153122387330596864
aL1277554120542512443695896199168L
aL4951760157141521099596496900L
aL73786976329197944832L
aI144115188344291328
aL604462909807314587361280L
aL4836883870079234110128128L
aL38685626299725727628525568L
aI268435488
aL1267650600228517631872854917120L
aI18014948265295872
aL28334198897217871282176L
aL9903520314283042199192993792L
aI2207613190144
aL18907912675552290406400L
aI2147549184
aI1688849860263936
aI6291456
aL19342813113834066795331584L
aL2475880078570760687237201920L
aL38685626227668133590599680L
aL633825300114114700752646569984L
aL9444732965739298816000L
aL79228766977174144908131303424L
aL39614232372859620625418813440L
aL39614081257132186388958019584L
aI144115188075986944
aL326816170371340392573368795136L
aL2476484541480567864385601536L
aI576461851815051264
aL618970019642692336472817664L
aL316912650057057350511614754816L
aI1125899906842656
aL19807040628566084398385995776L
aL309560567685070983048200192L
aL316912952288512254031469477888L
aL79228162514264339792567205888L
aI6755399441055744
aL77371252455336267181195280L
aI8589934593
aI1088
aI19327352832
aI8657043456
aI2199023321088
aL9671406845147409549361152L
aL2475880078714875737874104320L
aI524304
aI1152921504606846977
aI36028797018980352
aI1077936128
aL19342813113834341673205760L
aI34628173824
aL296300826683959672832L
aL19807040628566088796432498688L
aL1237940039285380274899189760L
aL309485009821345085904650240L
aI17592186109952
aI8796093022336
aL4951760157717981851899920384L
aI72339069014638592
aI288230651029618688
aL1208925819614629174708224L
aL18518801667747479552L
aL2475880078570795734170337280L
aL9673767740158468220256256L
aI275951648768
aI36028805608898560
aL38686806819288851001901056L
aL158456325028528675187096289280L
aL2417851639510733326123008L
aI281474976710660
aL1267650600228229403695726460928L
aI2147483649
aI137438957568
aL356526731314189519170947776512L
aI288230376151713792
aI17179869200
aI70368744308736
aL19807045350932567268031201280L
aI576460752303431680
aL4835703278458516698825728L
aL151124950823865501614080L
aL633825301294706321465762906112L
aI17592186052608
aL1267650600228229401496703270912L
aL4951760157146024699223867392L
aL633825300114114700817071079424L
aI32832
aL633825300114132715146861084672L
aL309485009821345206163734528L
aL18889465931495760723968L
aI72057594574798848
aL316912650057066357573430542336L
aL158456325028533178786715271168L
aL75557863725916470902784L
aL154742504910672534429499392L
aL18889474938677835595776L
aI612489549322387456
aL316912650057057350923931615232L
aL158456325028528675187087908864L
aL4835703296472915208306688L
aI4611826755915743232
aI134283264
aI34359739392
aI2306968909120536576
aI18015498021109760
aL36893488147419103232L
aL4722366482904004952064L
aL2417851640355158256254976L
aI35184372088840
aL1180591655901783392256L
aL18926359419625999958016L
aL77371252455336816937009152L
aL2476182310025664207091924992L
aL4722366482869653602304L
aL1237940039285380274899124225L
aI1125899940397056
aL316912725614921076288499220480L
aL316912650061669036392603189248L
aI564049465049088
aI576460756598390784
aL2417851639231457372667904L
aL151115727451828647100416L
aL19342813113834066795823104L
aL2417851639229258349412368L
aI16777344
aI536871040
aI1125899906908160
aI17179869312
aL18446814442453729280L
aI140737488355840
aL4951760747437331458302148608L
aL19807040628568336198199672832L
aL73786976294838468608L
aI16777224
aL633825300114114701847863230464L
aI36028797035741184
aL158456325028528675187087917056L
aI4398054899712
aL604472133179351442128896L
aL39614083618315410231594582016L
aL39614081257133294696678817792L
aI1099512152064
aL4722366482869645214208L
aI549755814016
aL77371252455336267183292416L
aL77371252455340665227706368L
aI17408
aL9444768994536309391360L
aI2251799813685760
aL9903520314283042199209771008L
aI3221225472
aI4210688
aI8589934600
aI2199023255616
aI4294971392
aL73786993887024250880L
aI4612811918334230528
aL1238242270740283932192800768L
aI1157425104234217472
aL2475880078570760551945732096L
aI536870920
aL1238015597149106189222543360L
aI72127962782105600
aL309485304969250248077606912L
aL39614081257420399172923686912L
aI1048832
aI536870944
aL79228171958997303332834377728L
aI68719477248
aL633825300114114700765531471872L
aL4951760157141521100133367808L
aL19343403409644425500950528L
aL1360041547066457821544448L
aL4835703278458516967260160L
aL151115727451863006576640L
aL77371252455336267181260800L
aL79228162514264337593560727552L
aI4611686018428436480
aI571746046443520
aL158456325028528677386111156224L
aL154742504910672534362914816L
aL149879795598890106880L
aL9444733036108034605056L
aI576742227280134144
aL151115727451845826707456L
aL1208925855643426193670144L
aL37778931862974341578752L
aI8589934624
aI36028831378702336
aL1267650600228229401496703205440L
aL618970019642707729635606528L
aL39614081257132170995795230720L
aI36169534507319296
aI4503633987108864
aI2147485696
aI17179869185
aI288230376151711745
aI17246978048
aI576460752303947776
aL9444732970137336938496L
aI140737488388096
aL1237940039285380275033341952L
aL302231454903659441160192L
aI144115205255725056
aL147573952589810630656L
aL39614081257132168796771975680L
aI562950020530176
aI576601489791778816
aL618970019642690137483116544L
aL302231455185132270387200L
aI1048578
aL1208925819614629176803328L
aI2305847407260205056
aL2361183259027008651264L
aL316912650057057350374175805440L
aI2199031644160
aL36893496943512125440L
aL18889465966662952943616L
aL39614081257132168796906192896L
aL4835703278493701070913536L
aI134742016
aI562949953552384
aI281483566645248
aL2417851639229258349428736L
aI8796093022212
aL92233720368547758080L
aI34359803904
aL9444737469338917797888L
aL37779508323709465133056L
aI25165824
aL19807040628566084398386511872L
aL152296319072546058141696L
aL295149031079259668480L
aL1237940039285380274899126272L
aI525312
aL38074079768136514535424L
aI8396800
aL79228162514264337593543951360L
aL1208925819614631322189824L
aI70368744194048
aI1126449662656512
aI9007201402224640
aI70368744181760
aL18446744073709551872L
aL309485600117155427430432768L
aI137439477760
aL9680851289882772688076800L
aI18014399583223808
aL1267650600228229402596214833152L
aL9223407221226864640L
aL19807040628566084398385988096L
aL77371252455336267197972480L
aI288230376218820608
aL77673483910239924474871808L
aI2097184
aI281474976710658
aI33556480
aL4951760157141521099596497920L
aL9739880870918643253248L
aL316917485760335808890874626048L
aI67125248
aL154742504910672534496608256L
aL158456325176102627776764313600L
aL147573952864554319872L
aI9126805504
aL158456343917994606665668755456L
aL18446744073711648768L
aL4869940435459321626624L
aL77371252455336275771129856L
aL633825302475297942183174209536L
aL316912650057057350375249543168L
aL2417851639229327068889088L
aI576460752311812096
aL2361183241434822607872L
aL9223442405598953472L
aI576460752840294400
aI17592722915328
aL604462909811712633864192L
aI562949953421376
aI8800387989504
aI36028797018964096
aI72075186223972352
aI4611686018427387908
aL9903520314283112567937171456L
aI17179885568
aL151115745466227156320256L
aL38704515693599612171452416L
aL9511602413006487552L
aL309485009821626543701491712L
aL18963252907773419061248L
aL75557863725914323681280L
aL36893489246930731008L
aI67239936
aL633825304836481183617996816384L
aL158456325028528675187088424960L
aL1208925819614629174706208L
aL151115727456226693349376L
aI144115188075864064
aI4611688217450643456
aL1180592746617318146048L
aL38685626227668133590614016L
aI1107296256
aI8796097216512
aL19807041809157705115797291008L
aL158456325028528692779273945088L
aI17179869192
aI4194432
aL633825300114115263698305024000L
aL1267650638007161264453864914944L
aL4951760157285636287672352768L
aL4835777065434811537031168L
aL36893488151714070528L
aL80280230208783968632832L
aL4722366482869645279232L
aI281475245146112
aI549789368320
aI103079215104
aI13510798882111488
aI5120
aL302231454903657830547456L
aI134218752
aI288300744895889408
aL39923566266953513865496756224L
aL1237940076178868422318227456L
aI4362076160
aI144115188076380160
aI8448
aL79228162514264337593544474624L
aI35184372088896
aL38685626227668133590859776L
aL1208925819614629208260608L
aL19884411881021420665567182848L
aL158456325028528815924576256000L
aL2361183241436970090496L
aI2251799813685248
aL19807040629719005902992834560L
aI2228224
aL158456627259983578844381577216L
aI288230376151842816
aL2417851639229258350460928L
aL79228162514264337868421857280L
aI144115188084244480
aL309485009821345068724846592L
aL309485009821346168236408832L
aL151189514428123485044736L
aI2305843017803628544
aI1152922604118474752
aL302231454903657293678592L
aL19807040923713989577738813440L
aL316912650057057350374175801376L
aL1180591620719558787072L
aL38685626227668271029551104L
aL9444732965739291475968L
aI274877906945
aI36507222016
aL36929516944438067200L
aL309485010974266573331628032L
aL2361183241434956824576L
aL37778931862957161742336L
aI2281701376
aL309503899287276547305635840L
aL73931091482914062336L
aL9463179709812999979008L
aI140737488355330
aL316912650057057350374175866880L
aL38685626227668133607374848L
aI35184372154368
aI512
aL39614081257132450271748685824L
aI17716740096
aL27670116110564327424L
aL1267650600228229401496711593984L
aL9671415780289070252425216L
aL618970019642690137453756416L
aL18889465931478647963648L
aL18446752869802573824L
aI283467841536
aL19807040647012828472095539200L
aL627189298506124754944L
aI17592186044420
aL302231454903665883611136L
aL79228162514268841193171320832L
aL2417851639229258349412480L
aL155951430730287163537096704L
aL1208925828621828429447168L
aL1208925819614629443141632L
aI2199025352704
aI1152921504606855168
aI70368744177920
aI2147484672
aI140739635838976
aL309485009821345068724781057L
aI16785408
aL38685626227668202310074368L
aI4611686018427404288
aL4835703278458525288759296L
aL4951760157141661837084852224L
aI281477124194304
aI549755944960
aI201326592
aI9007199254741504
aL1180591620717411368960L
aL1267650600375803354086379618304L
aL590295810358839869440L
aI137443147776
aI1188950301625810944
aL37778936366556789080064L
aL295147940363724914688L
aL38685626227668142180532224L
aL619007798574553094611271680L
aI4611686018427387936
aL9903520314283605149146415104L
aL1237940039294387474153865216L
aL77371252455336267185389568L
aI68753031168
aL9223372036854792192L
aI562949953421314
aI18023194602504192
aI1056
aL1267650600228229401531062943744L
aL75559016647418930266112L
aL9444733247214267138048L
aL73823005091857170432L
aL4835703278458516698826752L
aL4835703278458585418301440L
aL9223372036858970112L
aL18889465931487170789376L
aI4683743612465315840
aL154742504919679733617131520L
aL9444732965739827298304L
aL4951760157141521100670238720L
aL633825300114114700748368379904L
aI1152921504875282432
aL1267650600228229401496705302528L
aI33554560
aI2305843009213694016
aL9671406556917033397651456L
aL1180591620717411827712L
aL633825300114114700748351602816L
aI8796093022272
aI33554440
aI281474976710784
aL1267650600228229401496703209472L
aL1237940039285380275972866048L
aL4722366485068668469248L
aI1126999418470400
aL154742505198902910514102272L
aL36893492545465614336L
aI9009398277996544
aI16777728
aL4951761337733141817007800320L
aL9223372311732682752L
aI1099511627904
aL633825300132561444822061154304L
aL18889754161854732566528L
aI16896
aL604462909807314595741696L
aL604462909807314587354112L
aI2305843010287435776
aI1152921508901814272
aL302231454903657293742080L
aL77371252455336542059102208L
aL154742504910672534379167744L
aI536903680
aL18446744073709552128L
aL4835703278458516698824704L
aL9903671430010494027839832064L
aI2449958197289549824
aL9444732983331476471808L
aL1267650600228229401496703205380L
aL633825300114114700748351668224L
aI4620693217682128896
aI1073741832
aI2129920
aL4951760157141529895689519104L
aI72057594037927968
aL79228162514264337594080821248L
aL885443715538058477568L
aL316912650057057350374175801408L
aL302231599018845369532416L
aL618970093429666432287768576L
aI1073741856
aI4398046511104
aL18889465931547300331520L
aL599519182395560427520L
aI274877907008
aI4297064448
aI1125968626319360
aL36893488147419103744L
aI134217732
aL79228162514264337593548144640L
aL713053462628379038341895553024L
aL9444732965756470296576L
aI2533274790395904
aL151115727451829720580096L
aI140737622573056
aL633825300114116952548165287936L
aL79266848140492005727134547968L
aI35184640524288
aL9903520314283042199192994304L
aL9903520314283042199201382400L
aL19807078407497947355547697152L
aL453347182355485940514816L
aL4835704431380021305671680L
aL9903558093214905156354703360L
aL9709185488779990559358976L
aL38685630839354152017985536L
aI2814749767106560
aL77371252455336267181195776L
aL154742504910673084118204416L
aL1270126480306800162046501453824L
aL40140115104391984316416L
aL10058262819193714733555384320L
aI72057628397666304
aL39614081257132168796771975172L
aI8796093024256
aL10522490333925732336642555904L
aI98304
aI34359738369
aI549755813889
aL19807040628566093194479009792L
aI34426847232
aL5029131409596857366777692160L
aI1152921504607371264
aL79228162514300366390562914304L
aI1082130432
aI2267742732288
aL38685628533511142804291584L
aL9444732965739290427396L
aL37778931862957178486784L
aL79228162523487709630398726144L
aI1125899973951488
aI11258999068426240
aI549822922752
aL9444732965739290431488L
aL154742504910672538657357824L
aL2475880078570760549799297024L
aI351843720888320
aI274877907456
aI35184372088960
aI70369817919488
aL9223372036854777856L
aI1152921779484753920
aL38685626227738502334775296L
aL2361183241434822639616L
aL19342813113834066795298944L
aL154742800058577713715216384L
aL18889466494428534276096L
aL2361183241434856161280L
aL19342813113834071090266112L
aI18018796555993088
aL147573952589676445696L
aI2251799813718016
aL18446744073709559808L
aL19807040628854314774537699328L
aL309485009821345068724813824L
aL618970020219150889752985600L
aI1152921504606849024
aI4611686020574871552
aI68157440
aL158456325028528675204267769856L
aL158456325028672790375163756544L
aL19342813113834066795299840L
aL154742504910672534362391552L
aL4835703278458516715601920L
aI9007199254749184
aL9671406556952217769738240L
aI562952100904960
aL1180591620717419692032L
aL9444750980137799909376L
aL2475880078570760549800345600L
aL77371252743566643332907008L
aL39623752663689085830169624576L
aI2199023263744
aL73786976294842400768L
aL9295429630892703744L
aI34359738370
aL302231454904207049490432L
aL316912650057057350374175834112L
aI4398180728832
aL19807040628566086597409243136L
aL147573952589677461504L
aL9223653511831486464L
aI18014398576590848
aI281474985099264
aL9444732965739292524544L
aL79228181403730269072124805120L
aL2361183311803566784512L
aL590295810358706700288L
aL77371252455336267181719552L
aL604462909877683331530752L
aI131584
aI16416
aL79228162514264337593543950592L
aL9672587148537750808952832L
aI4613937818241073152
aL9671406556917033397665792L
aL4722402511666664177664L
aI1152921504615235584
aL302231454903726013153280L
aL633825309558847666487642030080L
aI68719476992
aL156797324626531188736L
aL147573952589676413440L
aI1152921505143717888
aL4835703278458516698824832L
aI8388736
aI17592186044480
aL2417851675258055368376320L
aL24758800785707605497982484480L
aI562949953421440
aI268435584
aL604536696783609425559552L
aL1267650600228265430293722169344L
aI34359754752
aL1267650600228229401496703213568L
aI262152
aL151115727451828646838784L
aL158456325028528675255807377408L
aL4722366482869913649152L
aL79305533766719673860725145600L
aI4311744512
aL18446744073743106048L
aL9671406556917033414426624L
aL1237940039285380274932678656L
aL158456325028528675187087900800L
aI9007199791611904
aI72057595111669760
aL38685626228231083544018944L
aI549760008192
aL2475880078570760549798252544L
aL633825300114114700748351602696L
aL1267650600228229401513883074560L
aL1237940039285381374410752000L
aI268697600
aL1267650600232841087515130593280L
aL79228162514264337597838917632L
aL2361183241469182345216L
aL36894051097372524544L
aI17592454479872
aI8796093022240
aL2475880078573012349611933696L
aL1180593872517224988672L
aL154742504910672534362390536L
aI4503599627370528
aI4195328
aI4672924418048
aI2341871806232657920
aL154742504910672534362390592L
aL2475880078570760554093215744L
aL37778931862957165903872L
aI8388640
aL2475880078570760549798772736L
aL147573952590750154752L
aL37778932988857068552192L
aI8796093038592
aI4398046512128
aI2148007936
aL77375974821819136826408960L
aL1182897463726624997376L
aI18014398509613056
aI288230376151712000
aI1125900175278080
aL18446779258081640448L
aI9024791440785408
aL590296091833682362368L
aL2485551485127677583195897856L
aL79228162514264337593543950352L
aI2305843009215791104
aL75557863725914323451904L
aL19037039884068257267712L
aL633825300114114700748351602720L
aI134217984
aI4503599627370496
aL633825300114114735932723691520L
aI4503599629467648
aI8589936640
aL39614081259438011805985669120L
aL309485009821345137444257792L
aL377789318629571617095680L
aI17596481011712
aI4294967360
aL4951760157141521099596496897L
aI4503599627370504
aL79228162514264337593544212480L
aI274880004096
aI2305843009213693953
aI72057594037944320
aL9671406565924232652390400L
aI2151677952
aL4951797936073384056758206464L
aL75853011631093676244992L
aI633318697598976
aI549755814400
aL151115729703628460523520L
aL1237940039285380274899648512L
aL9671406556934625583693824L
aI32784
aL154742504911798434269233152L
aL2361183241709700513792L
aI2251799813685252
aI72057602627862528
aL19343993705454784206602240L
aL2417851639229808105226240L
aL633825300114114700748888473600L
aL151115727592566135193600L
aL18446744082299486208L
aI18084767253659648
aL77371252455336267181199360L
aL37778931862957161710080L
aL302231454903657327230976L
aI140741783322624
aL19807040776140036988062400512L
aI2305843009213694080
aL633825300114114771117095780352L
aL2417851639229258349936640L
aL89131682828547379792736944128L
aL76092819304051900416L
aL309485009821345068724782080L
aL18889465931478614409216L
aI33562624
aI144115188075856128
aI4629700416936869888
aL151115727451828646839296L
aI412316860416
aL154742504910672534363439104L
aL316912650057057350374177898496L
aL302231457155457107361792L
aI144115188109410304
aL4722366483419401027584L
aI71303168
aL590295810908461465600L
aL147573952589709967360L
aI1073745920
aL9223372039002259456L
aL2361183241434822606850L
aL2365794927453249994752L
aL618970019678718934468526080L
aL1267650600228229401496703206400L
aI562949961809920
aL36893488164598972416L
aI1125899906842626
aI2251808403619840
aI70368744177672
aI9007199254757376
aL154742504910813271850745856L
aI134217744
aL38685626227668133598986240L
aL604462909809513610608640L
aL19342813690294819098722304L
aI72057594037932032
aL9903520314283042199226548224L
aL1237940334433285454251950080L
aL295147905179352826368L
aI145135534866432
aI576460753377165312
aI1125899906842632
aL154742514134044571217166336L
aI36028797018968064
aI1114112
aL2417851639229259423154176L
aL634444270133757390885801164800L
aI1280
aI4503599627371520
aI2251799813750784
aL309485009823596868538466304L
aI72057594038190080
aL2475880078570760549798248512L
aL9223376434901286912L
aI2251816993554432
aL302305241879952131883008L
aI35188667056128
aL79247505327378171660339249152L
aL19807040628566084398385987840L
aL9903520314292049398447734784L
aI144115188075921408
aI18014398509482048
aL158456325028528675187155009536L
aI149533581377536
aL590295810358739206144L
aL39614081257132168796771983360L
aL302231454903657293677056L
aL19342813113835166306926592L
aL4951760157141521099596513280L
aI2199023779840
aI4611686018427650048
aL151152620939976065941504L
aL4722366482869645213952L
aI274878038016
aI2199023255560
aL9903520314283323674169704448L
aI4611686155866341376
aI576460752303424000
aL328827822935179135520079872L
aL41103477866897391940009984L
aI2251799813689344
aI34368126976
aI537133056
aL618970019642760506193739776L
aL19807040628566084432745725952L
aI1152921504606847040
aL154742504910672603081867264L
aL4951760157141521099596496904L
aI2310346608841064448
aL9223372045444710400L
aI17592186044448
aL604462909807314620907520L
aL1208925819684997918883840L
aL2475880078570830918542426112L
aI2251799813947392
aI2097408
aL77975715365143581768548352L
aL4722366482869645213698L
aI4503599627386880
aI4616189618054758400
aI16777280
aL604462909807314587369472L
aI576462951326679040
aI9011597301252096
aL77371400029288856857608192L
aL319156416378262102122430464L
aL1180591620751771041792L
aL2475880078570760549802442752L
aL1267650600228229401496703729664L
aL9903539203748973677773848576L
aI4611686018695823360
aL151115727451828646871040L
aL19493928841285895442137088L
aI299067162755072
aL1237944761651863144544337920L
aI2147483776
aL4723519404374252060672L
aL316912668946523281852756656128L
aL4951760157177549896615460864L
aL590295810358705651712L
aI8796093022208
aL590295810358974087168L
aL316912650057057350374175803392L
aL154742504910672534395944960L
aL19342813149862863814262784L
aI1099511627777
aL18889466072216069210112L
aL2493409502955172672831488L
aL73786976294838206720L
aL1208925819614629174706432L
aI140737488879616
aL19807040628566084402680954880L
aL309485009821345068726878208L
aI8592031744
aL4722366482869645217792L
aL77371547603241446534021120L
aL1208925824118228802076672L
aL309486190412965786136084480L
aL4840425644941386344038400L
aI1099578736640
aL5261245166962866168321277952L
aL152185638608103800832L
aL4951760157141521099864932352L
aL295156912378607566848L
aI8589950976
aI35218731827200
aI144115188076118016
aI70377334112256
aL9822522284368862044487680L
aL73786976294838222848L
aI268435460
aL604462909808414098980864L
aL2475880078570760566978117632L
aI550829555712
aL316912650057058476274082643968L
aL38836741955119962237435904L
aL9671701704822212750475264L
aI68719542272
aL2361255299028860534784L
aL604462909824906773397504L
aI2199023386624
aL633902671366570037015532797952L
aI4503608217305088
aI144115188092633088
aL4722654713245796925440L
aI1125902054326272
aL4835703278458516698832896L
aL2475880078571042024774959104L
aI36028797018964480
aL39614081257132168798919458816L
aL302231454974026037854208L
aL79228162514264337730982903808L
aL319388530135628110923974049792L
aL604462909807314588401664L
aL4731589854906499989504L
aL158456400586392401101411319808L
aL316912650057075364772685283328L
aL73786976294838337536L
aI288230378299195392
aI1152956688978935808
aI2147484160
aL633825300409262605927704428544L
aL618970019642690137986433024L
aI36028797086072832
aL316912650057057350374175809536L
aL4951760230928497394434703360L
aI67110912
aI4398046543872
aI4503616807239680
aL79228162514264337627903688704L
aL37778931863094600663040L
aI290271069732864
aL154751949643638273652817920L
aI1074266112
aL39614081257132168796772040704L
aL309485009821345068728975360L
aI274877906952
aL151118033294837860532224L
aI281474976714752
aL147573952589676413184L
aL1267650600228229401496703336448L
aL309485009821345068758335488L
aI281474976972800
aL1267650600228247415895212687360L
aL9671406556917067757387776L
aI144117387099111424
aI131200
aL188894659314785808547840L
aL1239148965104994904073830400L
aL73786976312018075648L
aL151115727451828646838528L
aL633825337893046563705513312256L
aL2475880078571323499751669760L
aI279172874240
aI69793218560
aL2417851783344446425268224L
aI67109376
aL154742504910672568722128896L
aL39614081257132177592864997376L
aL1237940039285380274899125248L
aL18446744074783293440L
aL147591966988185894912L
aL9223372036854776320L
aI2099200
aL158456325028528675187088162816L
aI562950490292224
aL147573952658395889664L
aL154742504910672534362391040L
aI2181038080
aL40233051276774858934221537280L
aI1099515822080
aL18889465940274673876992L
aL9444732965739290427424L
aL19807040628566084398453096448L
aI288230376151712768
aL87042659012253300578844672L
aL154742504910672534362423296L
aL302240678275694148452352L
aL158456325028528676286599528448L
aI35184372088864
aI137438953472
aL4722366482869645737984L
aL151115728577728553680896L
aL37778931862958235451392L
aL4835703278528885443002368L
aL2361183241439117574144L
aI2176
aL2475955636434486464121667584L
aL618970056536178284868665344L
aI1161928703861587968
aI2594073385365405696
aL309485009821415437468958720L
aI1125904201809920
aL604462909807314587353216L
aL9444732965739290443776L
aI3377699720527872
aL309485009821345068725043200L
aI549755830272
aL85002596691653613846528L
aL9671406556917035545133056L
aL23611832414348226068480L
aL18889465931482875822080L
aI36028797019095040
aL2475880078570760549798248704L
aL633825300114114700748620038144L
aL604462909807452026306560L
aI580542139465728
aL1267650600228229401505293139968L
aL39614081257132169896283602944L
aL309485009821345068725305344L
aL9671406558042933304492032L
aI2305844108725321728
aL155346967820479848949743616L
aL154742504910672534362390560L
aL79228162514264337593678168064L
aI17592186044416
aL4722366482869649408000L
aL618970019642690139597045760L
aL2475880078570760549798248464L
aI1161084278931456
aL39614081257132168805361909760L
aL75557863725914323435520L
aL1237940039285415459271213056L
aI70866960384
aL309489732187827938369994752L
aL36893488147419365376L
aL316912654779423833243821015040L
aL2361759702187126030336L
aL158456325028528675187087900673L
aI17181966336
aI33555456
aL4835703278458516833042432L
aI9437184
aL38687987410909568413204480L
aL2475880115464248697217351680L
aL1180600627916666044416L
aL154742504910672534364487680L
aI1196268651020288
aI70368744243200
aI1099511628288
aL2475917857502623506959958016L
aI268451840
aL302231455466607247097856L
aL36893488147419111424L
aI8590065664
aI144115325514809344
aL9903520314283042199192993796L
aL39768823762042841331134365696L
aL590331839155724615680L
aL18889465931478580854848L
aL2379629985508532158464L
aI4398046511120
aL18889465931479117725696L
aL19342813113834067332169728L
aL23058430092136939520L
aL75557863725914323550208L
aL158456325028529238137041321984L
aL316912650130844326669014007808L
aL309485157395297658401193984L
aL226673591177742970257408L
aL21250649172913403461632L
aL295147905179353350144L
aI2305843009213702144
aL618970019642690137449563136L
aL79228162514264337593543950336L
aI8796093022224
aI140754668224512
aL590295814756752162816L
aL38685626227668683346411520L
aI562950087639040
aL633825300114114700748352126976L
aL1208925819614629241815040L
aL77371252455336268254937088L
aI8798240505856
aL4835703278458533878693888L
aL590295810358705652224L
aL2417888532717405768515584L
aI576460754450907136
aL1208925819616828197961728L
aL36893488147452657664L
aL317222135066878695442900582400L
aL4951762518324762534419103744L
aI4294968320
aI1125899915231232
aI1101659111424
aI72058693549555712
aI4194560
aL158456325028528675189235384320L
aL302231490932454312640512L
aL1237940039285661749875834880L
aI562949953437696
aI4503737066323968
aL295147905179352826112L
aI536871936
aL295147905179357020160L
aL1208944266358702884257792L
aL19807040628566084398390181888L
aL147573953139432226816L
aL9671406556919232420904960L
aI2252899325313024
aI549755813896
aI4194320
aI562949953425408
aL151115799509422684766208L
aL38685626227672531637108736L
atRp3
.