(lp1
I0
aI2
aI7
aI8
aI23
aI26
aI29
aI30
aI31
aI33
aI35
aI36
aI39
aI42
aI43
aI44
aI45
aI46
aI47
aI50
aI53
aI54
aI55
aI58
aI60
aI62
aI63
aI64
aI65
aI67
aI69
aI70
aI72
aI74
aI76
aI77
aI78
aI81
aI82
aI86
aI87
aI88
aI89
aI95
aI96
aI97
aI98
aI99
aI100
a.